
build/iris/main.exe:     file format elf32-avr


Disassembly of section .text:

00000000 <__vectors>:
       0:	0c 94 79 00 	jmp	0xf2	; 0xf2 <__ctors_end>
       4:	0c 94 98 00 	jmp	0x130	; 0x130 <__bad_interrupt>
       8:	0c 94 98 00 	jmp	0x130	; 0x130 <__bad_interrupt>
       c:	0c 94 98 00 	jmp	0x130	; 0x130 <__bad_interrupt>
      10:	0c 94 98 00 	jmp	0x130	; 0x130 <__bad_interrupt>
      14:	0c 94 98 00 	jmp	0x130	; 0x130 <__bad_interrupt>
      18:	0c 94 98 00 	jmp	0x130	; 0x130 <__bad_interrupt>
      1c:	0c 94 98 00 	jmp	0x130	; 0x130 <__bad_interrupt>
      20:	0c 94 98 00 	jmp	0x130	; 0x130 <__bad_interrupt>
      24:	0c 94 98 00 	jmp	0x130	; 0x130 <__bad_interrupt>
      28:	0c 94 98 00 	jmp	0x130	; 0x130 <__bad_interrupt>
      2c:	0c 94 98 00 	jmp	0x130	; 0x130 <__bad_interrupt>
      30:	0c 94 98 00 	jmp	0x130	; 0x130 <__bad_interrupt>
      34:	0c 94 e9 11 	jmp	0x23d2	; 0x23d2 <__vector_13>
      38:	0c 94 98 00 	jmp	0x130	; 0x130 <__bad_interrupt>
      3c:	0c 94 2d 12 	jmp	0x245a	; 0x245a <__vector_15>
      40:	0c 94 40 13 	jmp	0x2680	; 0x2680 <__vector_16>
      44:	0c 94 f1 12 	jmp	0x25e2	; 0x25e2 <__vector_17>
      48:	0c 94 2a 13 	jmp	0x2654	; 0x2654 <__vector_18>
      4c:	0c 94 35 13 	jmp	0x266a	; 0x266a <__vector_19>
      50:	0c 94 79 13 	jmp	0x26f2	; 0x26f2 <__vector_20>
      54:	0c 94 98 00 	jmp	0x130	; 0x130 <__bad_interrupt>
      58:	0c 94 98 00 	jmp	0x130	; 0x130 <__bad_interrupt>
      5c:	0c 94 98 00 	jmp	0x130	; 0x130 <__bad_interrupt>
      60:	0c 94 55 12 	jmp	0x24aa	; 0x24aa <__vector_24>
      64:	0c 94 98 00 	jmp	0x130	; 0x130 <__bad_interrupt>
      68:	0c 94 98 00 	jmp	0x130	; 0x130 <__bad_interrupt>
      6c:	0c 94 98 00 	jmp	0x130	; 0x130 <__bad_interrupt>
      70:	0c 94 98 00 	jmp	0x130	; 0x130 <__bad_interrupt>
      74:	0c 94 98 00 	jmp	0x130	; 0x130 <__bad_interrupt>
      78:	0c 94 98 00 	jmp	0x130	; 0x130 <__bad_interrupt>
      7c:	0c 94 98 00 	jmp	0x130	; 0x130 <__bad_interrupt>
      80:	0c 94 98 00 	jmp	0x130	; 0x130 <__bad_interrupt>
      84:	0c 94 98 00 	jmp	0x130	; 0x130 <__bad_interrupt>
      88:	0c 94 98 00 	jmp	0x130	; 0x130 <__bad_interrupt>
      8c:	0c 94 98 00 	jmp	0x130	; 0x130 <__bad_interrupt>
      90:	0c 94 98 00 	jmp	0x130	; 0x130 <__bad_interrupt>
      94:	0c 94 98 00 	jmp	0x130	; 0x130 <__bad_interrupt>
      98:	0c 94 98 00 	jmp	0x130	; 0x130 <__bad_interrupt>
      9c:	0c 94 98 00 	jmp	0x130	; 0x130 <__bad_interrupt>
      a0:	0c 94 98 00 	jmp	0x130	; 0x130 <__bad_interrupt>
      a4:	0c 94 98 00 	jmp	0x130	; 0x130 <__bad_interrupt>
      a8:	0c 94 98 00 	jmp	0x130	; 0x130 <__bad_interrupt>
      ac:	0c 94 98 00 	jmp	0x130	; 0x130 <__bad_interrupt>
      b0:	0c 94 98 00 	jmp	0x130	; 0x130 <__bad_interrupt>
      b4:	0c 94 98 00 	jmp	0x130	; 0x130 <__bad_interrupt>
      b8:	0c 94 98 00 	jmp	0x130	; 0x130 <__bad_interrupt>
      bc:	0c 94 98 00 	jmp	0x130	; 0x130 <__bad_interrupt>
      c0:	0c 94 98 00 	jmp	0x130	; 0x130 <__bad_interrupt>
      c4:	0c 94 98 00 	jmp	0x130	; 0x130 <__bad_interrupt>
      c8:	0c 94 98 00 	jmp	0x130	; 0x130 <__bad_interrupt>
      cc:	f5 0c       	add	r15, r5
      ce:	0f 0d       	add	r16, r15
      d0:	3e 0d       	add	r19, r14
      d2:	8d 0d       	add	r24, r13
      d4:	96 0f       	add	r25, r22
      d6:	0a 10       	cpse	r0, r10
      d8:	52 10       	cpse	r5, r2
      da:	10 11       	cpse	r17, r0
      dc:	b5 10       	cpse	r11, r5
      de:	c9 10       	cpse	r12, r9
      e0:	16 11       	cpse	r17, r6
      e2:	3b 11       	cpse	r19, r11
      e4:	48 11       	cpse	r20, r8
      e6:	5d 11       	cpse	r21, r13
      e8:	81 11       	cpse	r24, r1
      ea:	8a 11       	cpse	r24, r10

000000ec <McuSleepC__atm128PowerBits>:
      ec:	00 02 0e 06 0c 04                                   ......

000000f2 <__ctors_end>:
      f2:	11 24       	eor	r1, r1
      f4:	1f be       	out	0x3f, r1	; 63
      f6:	cf ef       	ldi	r28, 0xFF	; 255
      f8:	d1 e2       	ldi	r29, 0x21	; 33
      fa:	de bf       	out	0x3e, r29	; 62
      fc:	cd bf       	out	0x3d, r28	; 61

000000fe <__do_copy_data>:
      fe:	12 e0       	ldi	r17, 0x02	; 2
     100:	a0 e0       	ldi	r26, 0x00	; 0
     102:	b2 e0       	ldi	r27, 0x02	; 2
     104:	ec e8       	ldi	r30, 0x8C	; 140
     106:	fb e2       	ldi	r31, 0x2B	; 43
     108:	00 e0       	ldi	r16, 0x00	; 0
     10a:	0b bf       	out	0x3b, r16	; 59
     10c:	02 c0       	rjmp	.+4      	; 0x112 <__do_copy_data+0x14>
     10e:	07 90       	elpm	r0, Z+
     110:	0d 92       	st	X+, r0
     112:	a8 31       	cpi	r26, 0x18	; 24
     114:	b1 07       	cpc	r27, r17
     116:	d9 f7       	brne	.-10     	; 0x10e <__do_copy_data+0x10>

00000118 <__do_clear_bss>:
     118:	24 e0       	ldi	r18, 0x04	; 4
     11a:	a8 e1       	ldi	r26, 0x18	; 24
     11c:	b2 e0       	ldi	r27, 0x02	; 2
     11e:	01 c0       	rjmp	.+2      	; 0x122 <.do_clear_bss_start>

00000120 <.do_clear_bss_loop>:
     120:	1d 92       	st	X+, r1

00000122 <.do_clear_bss_start>:
     122:	aa 36       	cpi	r26, 0x6A	; 106
     124:	b2 07       	cpc	r27, r18
     126:	e1 f7       	brne	.-8      	; 0x120 <.do_clear_bss_loop>
     128:	0e 94 d5 13 	call	0x27aa	; 0x27aa <main>
     12c:	0c 94 c4 15 	jmp	0x2b88	; 0x2b88 <_exit>

00000130 <__bad_interrupt>:
     130:	0c 94 00 00 	jmp	0	; 0x0 <__vectors>

00000134 <HplAtm128GeneralIOPinP__15__IO__clr>:
     134:	2f 98       	cbi	0x05, 7	; 5
     136:	08 95       	ret

00000138 <HplAtm128GeneralIOPinP__8__IO__set>:
     138:	28 9a       	sbi	0x05, 0	; 5
     13a:	08 95       	ret

0000013c <TaskletC__0__Tasklet__suspend>:
     13c:	9f b7       	in	r25, 0x3f	; 63
     13e:	f8 94       	cli
     140:	80 91 7c 03 	lds	r24, 0x037C
     144:	8f 5f       	subi	r24, 0xFF	; 255
     146:	80 93 7c 03 	sts	0x037C, r24
     14a:	9f bf       	out	0x3f, r25	; 63
     14c:	08 95       	ret

0000014e <Atm128SpiP__FastSpiByte__splitRead>:
     14e:	0d b4       	in	r0, 0x2d	; 45
     150:	07 fe       	sbrs	r0, 7
     152:	fd cf       	rjmp	.-6      	; 0x14e <Atm128SpiP__FastSpiByte__splitRead>
     154:	8e b5       	in	r24, 0x2e	; 46
     156:	08 95       	ret

00000158 <Atm128SpiP__FastSpiByte__splitReadWrite>:
     158:	98 2f       	mov	r25, r24
     15a:	0d b4       	in	r0, 0x2d	; 45
     15c:	07 fe       	sbrs	r0, 7
     15e:	fd cf       	rjmp	.-6      	; 0x15a <Atm128SpiP__FastSpiByte__splitReadWrite+0x2>
     160:	8e b5       	in	r24, 0x2e	; 46
     162:	9e bd       	out	0x2e, r25	; 46
     164:	08 95       	ret

00000166 <HplAtm128GeneralIOPinP__8__IO__clr>:
     166:	28 98       	cbi	0x05, 0	; 5
     168:	08 95       	ret

0000016a <_crc_ccitt_update>:
     16a:	86 27       	eor	r24, r22
     16c:	08 2e       	mov	r0, r24
     16e:	82 95       	swap	r24
     170:	80 7f       	andi	r24, 0xF0	; 240
     172:	80 25       	eor	r24, r0
     174:	09 2e       	mov	r0, r25
     176:	98 2f       	mov	r25, r24
     178:	82 95       	swap	r24
     17a:	8f 70       	andi	r24, 0x0F	; 15
     17c:	08 26       	eor	r0, r24
     17e:	86 95       	lsr	r24
     180:	98 27       	eor	r25, r24
     182:	89 27       	eor	r24, r25
     184:	88 0f       	add	r24, r24
     186:	88 0f       	add	r24, r24
     188:	88 0f       	add	r24, r24
     18a:	80 25       	eor	r24, r0
     18c:	08 95       	ret

0000018e <SchedulerBasicP__popTask>:
     18e:	80 91 88 03 	lds	r24, 0x0388
     192:	8f 3f       	cpi	r24, 0xFF	; 255
     194:	71 f0       	breq	.+28     	; 0x1b2 <SchedulerBasicP__popTask+0x24>
     196:	e8 2f       	mov	r30, r24
     198:	f0 e0       	ldi	r31, 0x00	; 0
     19a:	e5 59       	subi	r30, 0x95	; 149
     19c:	fd 4f       	sbci	r31, 0xFD	; 253
     19e:	90 81       	ld	r25, Z
     1a0:	90 93 88 03 	sts	0x0388, r25
     1a4:	9f 3f       	cpi	r25, 0xFF	; 255
     1a6:	11 f4       	brne	.+4      	; 0x1ac <SchedulerBasicP__popTask+0x1e>
     1a8:	90 93 5c 04 	sts	0x045C, r25
     1ac:	9f ef       	ldi	r25, 0xFF	; 255
     1ae:	90 83       	st	Z, r25
     1b0:	08 95       	ret
     1b2:	8f ef       	ldi	r24, 0xFF	; 255
     1b4:	08 95       	ret

000001b6 <HplAtm1281Timer2AsyncP__stabiliseTimer2>:
     1b6:	80 91 b0 00 	lds	r24, 0x00B0
     1ba:	80 93 b0 00 	sts	0x00B0, r24
     1be:	80 91 b6 00 	lds	r24, 0x00B6
     1c2:	81 fd       	sbrc	r24, 1
     1c4:	fc cf       	rjmp	.-8      	; 0x1be <HplAtm1281Timer2AsyncP__stabiliseTimer2+0x8>
     1c6:	08 95       	ret

000001c8 <ActiveMessageAddressC__amAddress>:
     1c8:	2f b7       	in	r18, 0x3f	; 63
     1ca:	f8 94       	cli
     1cc:	80 91 13 02 	lds	r24, 0x0213
     1d0:	90 91 14 02 	lds	r25, 0x0214
     1d4:	2f bf       	out	0x3f, r18	; 63
     1d6:	08 95       	ret

000001d8 <SchedulerBasicP__TaskBasic__postTask>:
     1d8:	9f b7       	in	r25, 0x3f	; 63
     1da:	f8 94       	cli
     1dc:	e8 2f       	mov	r30, r24
     1de:	f0 e0       	ldi	r31, 0x00	; 0
     1e0:	e5 59       	subi	r30, 0x95	; 149
     1e2:	fd 4f       	sbci	r31, 0xFD	; 253
     1e4:	20 81       	ld	r18, Z
     1e6:	2f 3f       	cpi	r18, 0xFF	; 255
     1e8:	c9 f4       	brne	.+50     	; 0x21c <SchedulerBasicP__TaskBasic__postTask+0x44>
     1ea:	21 e0       	ldi	r18, 0x01	; 1
     1ec:	30 e0       	ldi	r19, 0x00	; 0
     1ee:	e0 91 5c 04 	lds	r30, 0x045C
     1f2:	e8 17       	cp	r30, r24
     1f4:	11 f0       	breq	.+4      	; 0x1fa <SchedulerBasicP__TaskBasic__postTask+0x22>
     1f6:	20 e0       	ldi	r18, 0x00	; 0
     1f8:	30 e0       	ldi	r19, 0x00	; 0
     1fa:	23 2b       	or	r18, r19
     1fc:	79 f4       	brne	.+30     	; 0x21c <SchedulerBasicP__TaskBasic__postTask+0x44>
     1fe:	20 91 88 03 	lds	r18, 0x0388
     202:	2f 3f       	cpi	r18, 0xFF	; 255
     204:	19 f4       	brne	.+6      	; 0x20c <SchedulerBasicP__TaskBasic__postTask+0x34>
     206:	80 93 88 03 	sts	0x0388, r24
     20a:	04 c0       	rjmp	.+8      	; 0x214 <SchedulerBasicP__TaskBasic__postTask+0x3c>
     20c:	f0 e0       	ldi	r31, 0x00	; 0
     20e:	e5 59       	subi	r30, 0x95	; 149
     210:	fd 4f       	sbci	r31, 0xFD	; 253
     212:	80 83       	st	Z, r24
     214:	80 93 5c 04 	sts	0x045C, r24
     218:	80 e0       	ldi	r24, 0x00	; 0
     21a:	01 c0       	rjmp	.+2      	; 0x21e <SchedulerBasicP__TaskBasic__postTask+0x46>
     21c:	85 e0       	ldi	r24, 0x05	; 5
     21e:	9f bf       	out	0x3f, r25	; 63
     220:	08 95       	ret

00000222 <MessageBufferLayerP__0__sendTask__postTask>:
     222:	82 e0       	ldi	r24, 0x02	; 2
     224:	0c 94 ec 00 	jmp	0x1d8	; 0x1d8 <SchedulerBasicP__TaskBasic__postTask>

00000228 <TransformCounterC__0__Counter__get>:
     228:	0f 93       	push	r16
     22a:	1f 93       	push	r17
     22c:	2f b7       	in	r18, 0x3f	; 63
     22e:	f8 94       	cli
     230:	80 91 55 03 	lds	r24, 0x0355
     234:	90 91 56 03 	lds	r25, 0x0356
     238:	a0 91 57 03 	lds	r26, 0x0357
     23c:	b0 91 58 03 	lds	r27, 0x0358
     240:	00 91 84 00 	lds	r16, 0x0084
     244:	10 91 85 00 	lds	r17, 0x0085
     248:	b0 9b       	sbis	0x16, 0	; 22
     24a:	07 c0       	rjmp	.+14     	; 0x25a <TransformCounterC__0__Counter__get+0x32>
     24c:	01 96       	adiw	r24, 0x01	; 1
     24e:	a1 1d       	adc	r26, r1
     250:	b1 1d       	adc	r27, r1
     252:	00 91 84 00 	lds	r16, 0x0084
     256:	10 91 85 00 	lds	r17, 0x0085
     25a:	2f bf       	out	0x3f, r18	; 63
     25c:	77 27       	eor	r23, r23
     25e:	66 27       	eor	r22, r22
     260:	20 e0       	ldi	r18, 0x00	; 0
     262:	30 e0       	ldi	r19, 0x00	; 0
     264:	60 2b       	or	r22, r16
     266:	71 2b       	or	r23, r17
     268:	82 2b       	or	r24, r18
     26a:	93 2b       	or	r25, r19
     26c:	1f 91       	pop	r17
     26e:	0f 91       	pop	r16
     270:	08 95       	ret

00000272 <Atm128AlarmC__0__Alarm__start>:
     272:	40 91 84 00 	lds	r20, 0x0084
     276:	50 91 85 00 	lds	r21, 0x0085
     27a:	ef b7       	in	r30, 0x3f	; 63
     27c:	f8 94       	cli
     27e:	20 91 84 00 	lds	r18, 0x0084
     282:	30 91 85 00 	lds	r19, 0x0085
     286:	2d 5f       	subi	r18, 0xFD	; 253
     288:	3f 4f       	sbci	r19, 0xFF	; 255
     28a:	b9 01       	movw	r22, r18
     28c:	64 1b       	sub	r22, r20
     28e:	75 0b       	sbc	r23, r21
     290:	68 17       	cp	r22, r24
     292:	79 07       	cpc	r23, r25
     294:	18 f4       	brcc	.+6      	; 0x29c <Atm128AlarmC__0__Alarm__start+0x2a>
     296:	9c 01       	movw	r18, r24
     298:	24 0f       	add	r18, r20
     29a:	35 1f       	adc	r19, r21
     29c:	21 15       	cp	r18, r1
     29e:	31 05       	cpc	r19, r1
     2a0:	11 f4       	brne	.+4      	; 0x2a6 <Atm128AlarmC__0__Alarm__start+0x34>
     2a2:	21 e0       	ldi	r18, 0x01	; 1
     2a4:	30 e0       	ldi	r19, 0x00	; 0
     2a6:	21 50       	subi	r18, 0x01	; 1
     2a8:	31 09       	sbc	r19, r1
     2aa:	30 93 89 00 	sts	0x0089, r19
     2ae:	20 93 88 00 	sts	0x0088, r18
     2b2:	82 e0       	ldi	r24, 0x02	; 2
     2b4:	86 bb       	out	0x16, r24	; 22
     2b6:	80 91 6f 00 	lds	r24, 0x006F
     2ba:	82 60       	ori	r24, 0x02	; 2
     2bc:	80 93 6f 00 	sts	0x006F, r24
     2c0:	ef bf       	out	0x3f, r30	; 63
     2c2:	08 95       	ret

000002c4 <RandomCollisionLayerP__0__getBackoff>:
     2c4:	0f 93       	push	r16
     2c6:	1f 93       	push	r17
     2c8:	cf 93       	push	r28
     2ca:	df 93       	push	r29
     2cc:	8c 01       	movw	r16, r24
     2ce:	2f b7       	in	r18, 0x3f	; 63
     2d0:	f8 94       	cli
     2d2:	c0 91 7a 03 	lds	r28, 0x037A
     2d6:	d0 91 7b 03 	lds	r29, 0x037B
     2da:	ce 01       	movw	r24, r28
     2dc:	8f 5e       	subi	r24, 0xEF	; 239
     2de:	9e 4f       	sbci	r25, 0xFE	; 254
     2e0:	90 93 7b 03 	sts	0x037B, r25
     2e4:	80 93 7a 03 	sts	0x037A, r24
     2e8:	2f bf       	out	0x3f, r18	; 63
     2ea:	84 e0       	ldi	r24, 0x04	; 4
     2ec:	0e 94 ec 00 	call	0x1d8	; 0x1d8 <SchedulerBasicP__TaskBasic__postTask>
     2f0:	ce 01       	movw	r24, r28
     2f2:	b8 01       	movw	r22, r16
     2f4:	0e 94 63 15 	call	0x2ac6	; 0x2ac6 <__udivmodhi4>
     2f8:	8a 5d       	subi	r24, 0xDA	; 218
     2fa:	9e 4f       	sbci	r25, 0xFE	; 254
     2fc:	df 91       	pop	r29
     2fe:	cf 91       	pop	r28
     300:	1f 91       	pop	r17
     302:	0f 91       	pop	r16
     304:	08 95       	ret

00000306 <KnowledgeCenterP__getIndex>:
     306:	98 2f       	mov	r25, r24
     308:	e1 e9       	ldi	r30, 0x91	; 145
     30a:	f2 e0       	ldi	r31, 0x02	; 2
     30c:	80 e0       	ldi	r24, 0x00	; 0
     30e:	df 01       	movw	r26, r30
     310:	11 97       	sbiw	r26, 0x01	; 1
     312:	2c 91       	ld	r18, X
     314:	22 23       	and	r18, r18
     316:	19 f0       	breq	.+6      	; 0x31e <KnowledgeCenterP__getIndex+0x18>
     318:	20 81       	ld	r18, Z
     31a:	29 17       	cp	r18, r25
     31c:	21 f0       	breq	.+8      	; 0x326 <KnowledgeCenterP__getIndex+0x20>
     31e:	8f 5f       	subi	r24, 0xFF	; 255
     320:	39 96       	adiw	r30, 0x09	; 9
     322:	8a 30       	cpi	r24, 0x0A	; 10
     324:	a1 f7       	brne	.-24     	; 0x30e <KnowledgeCenterP__getIndex+0x8>
     326:	08 95       	ret

00000328 <KnowledgeCenterP__getEmptySlot>:
     328:	e0 e9       	ldi	r30, 0x90	; 144
     32a:	f2 e0       	ldi	r31, 0x02	; 2
     32c:	80 e0       	ldi	r24, 0x00	; 0
     32e:	90 81       	ld	r25, Z
     330:	99 23       	and	r25, r25
     332:	21 f0       	breq	.+8      	; 0x33c <KnowledgeCenterP__getEmptySlot+0x14>
     334:	8f 5f       	subi	r24, 0xFF	; 255
     336:	39 96       	adiw	r30, 0x09	; 9
     338:	8a 30       	cpi	r24, 0x0A	; 10
     33a:	c9 f7       	brne	.-14     	; 0x32e <KnowledgeCenterP__getEmptySlot+0x6>
     33c:	08 95       	ret

0000033e <Atm1281AlarmAsyncP__0__Counter__get>:
     33e:	2f b7       	in	r18, 0x3f	; 63
     340:	f8 94       	cli
     342:	30 91 b2 00 	lds	r19, 0x00B2
     346:	80 91 67 02 	lds	r24, 0x0267
     34a:	90 91 68 02 	lds	r25, 0x0268
     34e:	a0 91 69 02 	lds	r26, 0x0269
     352:	b0 91 6a 02 	lds	r27, 0x026A
     356:	b9 9b       	sbis	0x17, 1	; 23
     358:	0f c0       	rjmp	.+30     	; 0x378 <Atm1281AlarmAsyncP__0__Counter__get+0x3a>
     35a:	40 91 b3 00 	lds	r20, 0x00B3
     35e:	30 91 b2 00 	lds	r19, 0x00B2
     362:	bc 01       	movw	r22, r24
     364:	cd 01       	movw	r24, r26
     366:	6f 5f       	subi	r22, 0xFF	; 255
     368:	7f 4f       	sbci	r23, 0xFF	; 255
     36a:	8f 4f       	sbci	r24, 0xFF	; 255
     36c:	9f 4f       	sbci	r25, 0xFF	; 255
     36e:	64 0f       	add	r22, r20
     370:	71 1d       	adc	r23, r1
     372:	81 1d       	adc	r24, r1
     374:	91 1d       	adc	r25, r1
     376:	02 c0       	rjmp	.+4      	; 0x37c <Atm1281AlarmAsyncP__0__Counter__get+0x3e>
     378:	bc 01       	movw	r22, r24
     37a:	cd 01       	movw	r24, r26
     37c:	63 0f       	add	r22, r19
     37e:	71 1d       	adc	r23, r1
     380:	81 1d       	adc	r24, r1
     382:	91 1d       	adc	r25, r1
     384:	2f bf       	out	0x3f, r18	; 63
     386:	08 95       	ret

00000388 <Atm1281AlarmAsyncP__0__setInterrupt>:
     388:	cf 92       	push	r12
     38a:	df 92       	push	r13
     38c:	ef 92       	push	r14
     38e:	ff 92       	push	r15
     390:	0f 93       	push	r16
     392:	1f 93       	push	r17
     394:	cf 93       	push	r28
     396:	cf b7       	in	r28, 0x3f	; 63
     398:	f8 94       	cli
     39a:	20 91 b3 00 	lds	r18, 0x00B3
     39e:	90 91 b2 00 	lds	r25, 0x00B2
     3a2:	87 b3       	in	r24, 0x17	; 23
     3a4:	29 17       	cp	r18, r25
     3a6:	11 f0       	breq	.+4      	; 0x3ac <Atm1281AlarmAsyncP__0__setInterrupt+0x24>
     3a8:	81 ff       	sbrs	r24, 1
     3aa:	02 c0       	rjmp	.+4      	; 0x3b0 <Atm1281AlarmAsyncP__0__setInterrupt+0x28>
     3ac:	cf bf       	out	0x3f, r28	; 63
     3ae:	78 c0       	rjmp	.+240    	; 0x4a0 <Atm1281AlarmAsyncP__0__setInterrupt+0x118>
     3b0:	80 91 8a 02 	lds	r24, 0x028A
     3b4:	81 11       	cpse	r24, r1
     3b6:	02 c0       	rjmp	.+4      	; 0x3bc <Atm1281AlarmAsyncP__0__setInterrupt+0x34>
     3b8:	86 ee       	ldi	r24, 0xE6	; 230
     3ba:	3a c0       	rjmp	.+116    	; 0x430 <Atm1281AlarmAsyncP__0__setInterrupt+0xa8>
     3bc:	0e 94 9f 01 	call	0x33e	; 0x33e <Atm1281AlarmAsyncP__0__Counter__get>
     3c0:	00 91 5b 02 	lds	r16, 0x025B
     3c4:	10 91 5c 02 	lds	r17, 0x025C
     3c8:	20 91 5d 02 	lds	r18, 0x025D
     3cc:	30 91 5e 02 	lds	r19, 0x025E
     3d0:	c0 90 8d 03 	lds	r12, 0x038D
     3d4:	d0 90 8e 03 	lds	r13, 0x038E
     3d8:	e0 90 8f 03 	lds	r14, 0x038F
     3dc:	f0 90 90 03 	lds	r15, 0x0390
     3e0:	60 1b       	sub	r22, r16
     3e2:	71 0b       	sbc	r23, r17
     3e4:	82 0b       	sbc	r24, r18
     3e6:	93 0b       	sbc	r25, r19
     3e8:	6c 15       	cp	r22, r12
     3ea:	7d 05       	cpc	r23, r13
     3ec:	8e 05       	cpc	r24, r14
     3ee:	9f 05       	cpc	r25, r15
     3f0:	28 f0       	brcs	.+10     	; 0x3fc <Atm1281AlarmAsyncP__0__setInterrupt+0x74>
     3f2:	10 92 8a 02 	sts	0x028A, r1
     3f6:	86 ee       	ldi	r24, 0xE6	; 230
     3f8:	31 e0       	ldi	r19, 0x01	; 1
     3fa:	1b c0       	rjmp	.+54     	; 0x432 <Atm1281AlarmAsyncP__0__setInterrupt+0xaa>
     3fc:	d7 01       	movw	r26, r14
     3fe:	c6 01       	movw	r24, r12
     400:	80 0f       	add	r24, r16
     402:	91 1f       	adc	r25, r17
     404:	a2 1f       	adc	r26, r18
     406:	b3 1f       	adc	r27, r19
     408:	40 91 67 02 	lds	r20, 0x0267
     40c:	50 91 68 02 	lds	r21, 0x0268
     410:	60 91 69 02 	lds	r22, 0x0269
     414:	70 91 6a 02 	lds	r23, 0x026A
     418:	84 1b       	sub	r24, r20
     41a:	95 0b       	sbc	r25, r21
     41c:	a6 0b       	sbc	r26, r22
     41e:	b7 0b       	sbc	r27, r23
     420:	87 3e       	cpi	r24, 0xE7	; 231
     422:	91 05       	cpc	r25, r1
     424:	a1 05       	cpc	r26, r1
     426:	b1 05       	cpc	r27, r1
     428:	38 f6       	brcc	.-114    	; 0x3b8 <Atm1281AlarmAsyncP__0__setInterrupt+0x30>
     42a:	82 30       	cpi	r24, 0x02	; 2
     42c:	08 f4       	brcc	.+2      	; 0x430 <Atm1281AlarmAsyncP__0__setInterrupt+0xa8>
     42e:	82 e0       	ldi	r24, 0x02	; 2
     430:	30 e0       	ldi	r19, 0x00	; 0
     432:	2f ef       	ldi	r18, 0xFF	; 255
     434:	28 0f       	add	r18, r24
     436:	90 91 b6 00 	lds	r25, 0x00B6
     43a:	93 fd       	sbrc	r25, 3
     43c:	fc cf       	rjmp	.-8      	; 0x436 <Atm1281AlarmAsyncP__0__setInterrupt+0xae>
     43e:	90 91 b2 00 	lds	r25, 0x00B2
     442:	29 13       	cpse	r18, r25
     444:	01 c0       	rjmp	.+2      	; 0x448 <Atm1281AlarmAsyncP__0__setInterrupt+0xc0>
     446:	28 2f       	mov	r18, r24
     448:	80 91 67 02 	lds	r24, 0x0267
     44c:	90 91 68 02 	lds	r25, 0x0268
     450:	a0 91 69 02 	lds	r26, 0x0269
     454:	b0 91 6a 02 	lds	r27, 0x026A
     458:	ac 01       	movw	r20, r24
     45a:	bd 01       	movw	r22, r26
     45c:	4f 5f       	subi	r20, 0xFF	; 255
     45e:	5f 4f       	sbci	r21, 0xFF	; 255
     460:	6f 4f       	sbci	r22, 0xFF	; 255
     462:	7f 4f       	sbci	r23, 0xFF	; 255
     464:	42 0f       	add	r20, r18
     466:	51 1d       	adc	r21, r1
     468:	61 1d       	adc	r22, r1
     46a:	71 1d       	adc	r23, r1
     46c:	48 17       	cp	r20, r24
     46e:	59 07       	cpc	r21, r25
     470:	6a 07       	cpc	r22, r26
     472:	7b 07       	cpc	r23, r27
     474:	10 f4       	brcc	.+4      	; 0x47a <Atm1281AlarmAsyncP__0__setInterrupt+0xf2>
     476:	28 2f       	mov	r18, r24
     478:	20 95       	com	r18
     47a:	80 91 b6 00 	lds	r24, 0x00B6
     47e:	83 fd       	sbrc	r24, 3
     480:	fc cf       	rjmp	.-8      	; 0x47a <Atm1281AlarmAsyncP__0__setInterrupt+0xf2>
     482:	20 93 b3 00 	sts	0x00B3, r18
     486:	cf bf       	out	0x3f, r28	; 63
     488:	33 23       	and	r19, r19
     48a:	51 f0       	breq	.+20     	; 0x4a0 <Atm1281AlarmAsyncP__0__setInterrupt+0x118>
     48c:	85 e0       	ldi	r24, 0x05	; 5
     48e:	cf 91       	pop	r28
     490:	1f 91       	pop	r17
     492:	0f 91       	pop	r16
     494:	ff 90       	pop	r15
     496:	ef 90       	pop	r14
     498:	df 90       	pop	r13
     49a:	cf 90       	pop	r12
     49c:	0c 94 ec 00 	jmp	0x1d8	; 0x1d8 <SchedulerBasicP__TaskBasic__postTask>
     4a0:	cf 91       	pop	r28
     4a2:	1f 91       	pop	r17
     4a4:	0f 91       	pop	r16
     4a6:	ff 90       	pop	r15
     4a8:	ef 90       	pop	r14
     4aa:	df 90       	pop	r13
     4ac:	cf 90       	pop	r12
     4ae:	08 95       	ret

000004b0 <AMQueueImplP__0__Send__sendDone.isra.41>:
     4b0:	88 23       	and	r24, r24
     4b2:	19 f0       	breq	.+6      	; 0x4ba <AMQueueImplP__0__Send__sendDone.isra.41+0xa>
     4b4:	81 30       	cpi	r24, 0x01	; 1
     4b6:	39 f0       	breq	.+14     	; 0x4c6 <AMQueueImplP__0__Send__sendDone.isra.41+0x16>
     4b8:	08 95       	ret
     4ba:	63 52       	subi	r22, 0x23	; 35
     4bc:	72 40       	sbci	r23, 0x02	; 2
     4be:	41 f4       	brne	.+16     	; 0x4d0 <AMQueueImplP__0__Send__sendDone.isra.41+0x20>
     4c0:	10 92 1f 02 	sts	0x021F, r1
     4c4:	08 95       	ret
     4c6:	62 52       	subi	r22, 0x22	; 34
     4c8:	74 40       	sbci	r23, 0x04	; 4
     4ca:	11 f4       	brne	.+4      	; 0x4d0 <AMQueueImplP__0__Send__sendDone.isra.41+0x20>
     4cc:	10 92 1e 02 	sts	0x021E, r1
     4d0:	08 95       	ret

000004d2 <KnowledgeCenterP__uDone.isra.107>:
     4d2:	10 92 1a 02 	sts	0x021A, r1
     4d6:	10 92 1b 02 	sts	0x021B, r1
     4da:	80 91 19 02 	lds	r24, 0x0219
     4de:	88 23       	and	r24, r24
     4e0:	21 f0       	breq	.+8      	; 0x4ea <KnowledgeCenterP__uDone.isra.107+0x18>
     4e2:	81 30       	cpi	r24, 0x01	; 1
     4e4:	51 f0       	breq	.+20     	; 0x4fa <KnowledgeCenterP__uDone.isra.107+0x28>
     4e6:	12 98       	cbi	0x02, 2	; 2
     4e8:	08 c0       	rjmp	.+16     	; 0x4fa <KnowledgeCenterP__uDone.isra.107+0x28>
     4ea:	9f b7       	in	r25, 0x3f	; 63
     4ec:	f8 94       	cli
     4ee:	82 b1       	in	r24, 0x02	; 2
     4f0:	21 e0       	ldi	r18, 0x01	; 1
     4f2:	82 27       	eor	r24, r18
     4f4:	82 b9       	out	0x02, r24	; 2
     4f6:	9f bf       	out	0x3f, r25	; 63
     4f8:	08 95       	ret
     4fa:	08 95       	ret

000004fc <SimpleArbiterP__1__Resource__request.constprop.130>:
     4fc:	cf 93       	push	r28
     4fe:	cf b7       	in	r28, 0x3f	; 63
     500:	f8 94       	cli
     502:	80 91 20 02 	lds	r24, 0x0220
     506:	81 11       	cpse	r24, r1
     508:	0b c0       	rjmp	.+22     	; 0x520 <SimpleArbiterP__1__Resource__request.constprop.130+0x24>
     50a:	81 e0       	ldi	r24, 0x01	; 1
     50c:	80 93 20 02 	sts	0x0220, r24
     510:	10 92 0c 02 	sts	0x020C, r1
     514:	89 e0       	ldi	r24, 0x09	; 9
     516:	0e 94 ec 00 	call	0x1d8	; 0x1d8 <SchedulerBasicP__TaskBasic__postTask>
     51a:	cf bf       	out	0x3f, r28	; 63
     51c:	80 e0       	ldi	r24, 0x00	; 0
     51e:	1f c0       	rjmp	.+62     	; 0x55e <SimpleArbiterP__1__Resource__request.constprop.130+0x62>
     520:	80 91 ec 02 	lds	r24, 0x02EC
     524:	8f 3f       	cpi	r24, 0xFF	; 255
     526:	c9 f4       	brne	.+50     	; 0x55a <SimpleArbiterP__1__Resource__request.constprop.130+0x5e>
     528:	81 e0       	ldi	r24, 0x01	; 1
     52a:	90 e0       	ldi	r25, 0x00	; 0
     52c:	e0 91 0d 02 	lds	r30, 0x020D
     530:	ee 23       	and	r30, r30
     532:	11 f0       	breq	.+4      	; 0x538 <SimpleArbiterP__1__Resource__request.constprop.130+0x3c>
     534:	80 e0       	ldi	r24, 0x00	; 0
     536:	90 e0       	ldi	r25, 0x00	; 0
     538:	89 2b       	or	r24, r25
     53a:	79 f4       	brne	.+30     	; 0x55a <SimpleArbiterP__1__Resource__request.constprop.130+0x5e>
     53c:	80 91 0e 02 	lds	r24, 0x020E
     540:	8f 3f       	cpi	r24, 0xFF	; 255
     542:	19 f4       	brne	.+6      	; 0x54a <SimpleArbiterP__1__Resource__request.constprop.130+0x4e>
     544:	10 92 0e 02 	sts	0x020E, r1
     548:	04 c0       	rjmp	.+8      	; 0x552 <SimpleArbiterP__1__Resource__request.constprop.130+0x56>
     54a:	f0 e0       	ldi	r31, 0x00	; 0
     54c:	e4 51       	subi	r30, 0x14	; 20
     54e:	fd 4f       	sbci	r31, 0xFD	; 253
     550:	10 82       	st	Z, r1
     552:	10 92 0d 02 	sts	0x020D, r1
     556:	80 e0       	ldi	r24, 0x00	; 0
     558:	01 c0       	rjmp	.+2      	; 0x55c <SimpleArbiterP__1__Resource__request.constprop.130+0x60>
     55a:	85 e0       	ldi	r24, 0x05	; 5
     55c:	cf bf       	out	0x3f, r28	; 63
     55e:	cf 91       	pop	r28
     560:	08 95       	ret

00000562 <SimpleArbiterP__0__Resource__release.constprop.139>:
     562:	cf 93       	push	r28
     564:	cf b7       	in	r28, 0x3f	; 63
     566:	f8 94       	cli
     568:	80 91 21 02 	lds	r24, 0x0221
     56c:	82 30       	cpi	r24, 0x02	; 2
     56e:	29 f5       	brne	.+74     	; 0x5ba <SimpleArbiterP__0__Resource__release.constprop.139+0x58>
     570:	80 91 0f 02 	lds	r24, 0x020F
     574:	81 11       	cpse	r24, r1
     576:	21 c0       	rjmp	.+66     	; 0x5ba <SimpleArbiterP__0__Resource__release.constprop.139+0x58>
     578:	80 91 11 02 	lds	r24, 0x0211
     57c:	8f 3f       	cpi	r24, 0xFF	; 255
     57e:	b1 f0       	breq	.+44     	; 0x5ac <SimpleArbiterP__0__Resource__release.constprop.139+0x4a>
     580:	e8 2f       	mov	r30, r24
     582:	f0 e0       	ldi	r31, 0x00	; 0
     584:	ec 57       	subi	r30, 0x7C	; 124
     586:	fd 4f       	sbci	r31, 0xFD	; 253
     588:	90 81       	ld	r25, Z
     58a:	90 93 11 02 	sts	0x0211, r25
     58e:	9f 3f       	cpi	r25, 0xFF	; 255
     590:	11 f4       	brne	.+4      	; 0x596 <SimpleArbiterP__0__Resource__release.constprop.139+0x34>
     592:	90 93 10 02 	sts	0x0210, r25
     596:	9f ef       	ldi	r25, 0xFF	; 255
     598:	90 83       	st	Z, r25
     59a:	80 93 0f 02 	sts	0x020F, r24
     59e:	81 e0       	ldi	r24, 0x01	; 1
     5a0:	80 93 21 02 	sts	0x0221, r24
     5a4:	80 e0       	ldi	r24, 0x00	; 0
     5a6:	0e 94 ec 00 	call	0x1d8	; 0x1d8 <SchedulerBasicP__TaskBasic__postTask>
     5aa:	04 c0       	rjmp	.+8      	; 0x5b4 <SimpleArbiterP__0__Resource__release.constprop.139+0x52>
     5ac:	80 93 0f 02 	sts	0x020F, r24
     5b0:	10 92 21 02 	sts	0x0221, r1
     5b4:	cf bf       	out	0x3f, r28	; 63
     5b6:	80 e0       	ldi	r24, 0x00	; 0
     5b8:	02 c0       	rjmp	.+4      	; 0x5be <SimpleArbiterP__0__Resource__release.constprop.139+0x5c>
     5ba:	cf bf       	out	0x3f, r28	; 63
     5bc:	81 e0       	ldi	r24, 0x01	; 1
     5be:	cf 91       	pop	r28
     5c0:	08 95       	ret

000005c2 <RF230DriverLayerP__SpiResource__release>:
     5c2:	cf 93       	push	r28
     5c4:	cf b7       	in	r28, 0x3f	; 63
     5c6:	f8 94       	cli
     5c8:	80 91 20 02 	lds	r24, 0x0220
     5cc:	82 30       	cpi	r24, 0x02	; 2
     5ce:	41 f5       	brne	.+80     	; 0x620 <RF230DriverLayerP__SpiResource__release+0x5e>
     5d0:	80 91 0c 02 	lds	r24, 0x020C
     5d4:	81 11       	cpse	r24, r1
     5d6:	24 c0       	rjmp	.+72     	; 0x620 <RF230DriverLayerP__SpiResource__release+0x5e>
     5d8:	80 91 0e 02 	lds	r24, 0x020E
     5dc:	8f 3f       	cpi	r24, 0xFF	; 255
     5de:	b1 f0       	breq	.+44     	; 0x60c <RF230DriverLayerP__SpiResource__release+0x4a>
     5e0:	e8 2f       	mov	r30, r24
     5e2:	f0 e0       	ldi	r31, 0x00	; 0
     5e4:	e4 51       	subi	r30, 0x14	; 20
     5e6:	fd 4f       	sbci	r31, 0xFD	; 253
     5e8:	90 81       	ld	r25, Z
     5ea:	90 93 0e 02 	sts	0x020E, r25
     5ee:	9f 3f       	cpi	r25, 0xFF	; 255
     5f0:	11 f4       	brne	.+4      	; 0x5f6 <RF230DriverLayerP__SpiResource__release+0x34>
     5f2:	90 93 0d 02 	sts	0x020D, r25
     5f6:	9f ef       	ldi	r25, 0xFF	; 255
     5f8:	90 83       	st	Z, r25
     5fa:	80 93 0c 02 	sts	0x020C, r24
     5fe:	81 e0       	ldi	r24, 0x01	; 1
     600:	80 93 20 02 	sts	0x0220, r24
     604:	89 e0       	ldi	r24, 0x09	; 9
     606:	0e 94 ec 00 	call	0x1d8	; 0x1d8 <SchedulerBasicP__TaskBasic__postTask>
     60a:	04 c0       	rjmp	.+8      	; 0x614 <RF230DriverLayerP__SpiResource__release+0x52>
     60c:	80 93 0c 02 	sts	0x020C, r24
     610:	10 92 20 02 	sts	0x0220, r1
     614:	8c b5       	in	r24, 0x2c	; 44
     616:	8f 7b       	andi	r24, 0xBF	; 191
     618:	8c bd       	out	0x2c, r24	; 44
     61a:	cf bf       	out	0x3f, r28	; 63
     61c:	80 e0       	ldi	r24, 0x00	; 0
     61e:	02 c0       	rjmp	.+4      	; 0x624 <RF230DriverLayerP__SpiResource__release+0x62>
     620:	cf bf       	out	0x3f, r28	; 63
     622:	81 e0       	ldi	r24, 0x01	; 1
     624:	cf 91       	pop	r28
     626:	08 95       	ret

00000628 <KnowledgeCenterP__SysLink__responseMsg>:
     628:	ff 92       	push	r15
     62a:	0f 93       	push	r16
     62c:	1f 93       	push	r17
     62e:	cf 93       	push	r28
     630:	df 93       	push	r29
     632:	ec 01       	movw	r28, r24
     634:	88 81       	ld	r24, Y
     636:	8a 37       	cpi	r24, 0x7A	; 122
     638:	09 f4       	brne	.+2      	; 0x63c <KnowledgeCenterP__SysLink__responseMsg+0x14>
     63a:	63 c0       	rjmp	.+198    	; 0x702 <KnowledgeCenterP__SysLink__responseMsg+0xda>
     63c:	8b 37       	cpi	r24, 0x7B	; 123
     63e:	09 f4       	brne	.+2      	; 0x642 <KnowledgeCenterP__SysLink__responseMsg+0x1a>
     640:	87 c0       	rjmp	.+270    	; 0x750 <KnowledgeCenterP__SysLink__responseMsg+0x128>
     642:	89 37       	cpi	r24, 0x79	; 121
     644:	09 f0       	breq	.+2      	; 0x648 <KnowledgeCenterP__SysLink__responseMsg+0x20>
     646:	ed c0       	rjmp	.+474    	; 0x822 <KnowledgeCenterP__SysLink__responseMsg+0x1fa>
     648:	9d 81       	ldd	r25, Y+5	; 0x05
     64a:	91 30       	cpi	r25, 0x01	; 1
     64c:	09 f4       	brne	.+2      	; 0x650 <KnowledgeCenterP__SysLink__responseMsg+0x28>
     64e:	e9 c0       	rjmp	.+466    	; 0x822 <KnowledgeCenterP__SysLink__responseMsg+0x1fa>
     650:	8e 81       	ldd	r24, Y+6	; 0x06
     652:	81 30       	cpi	r24, 0x01	; 1
     654:	09 f4       	brne	.+2      	; 0x658 <KnowledgeCenterP__SysLink__responseMsg+0x30>
     656:	e5 c0       	rjmp	.+458    	; 0x822 <KnowledgeCenterP__SysLink__responseMsg+0x1fa>
     658:	2b 81       	ldd	r18, Y+3	; 0x03
     65a:	30 e0       	ldi	r19, 0x00	; 0
     65c:	32 2f       	mov	r19, r18
     65e:	22 27       	eor	r18, r18
     660:	4c 81       	ldd	r20, Y+4	; 0x04
     662:	24 2b       	or	r18, r20
     664:	2c 33       	cpi	r18, 0x3C	; 60
     666:	31 05       	cpc	r19, r1
     668:	09 f4       	brne	.+2      	; 0x66c <KnowledgeCenterP__SysLink__responseMsg+0x44>
     66a:	db c0       	rjmp	.+438    	; 0x822 <KnowledgeCenterP__SysLink__responseMsg+0x1fa>
     66c:	fa 80       	ldd	r15, Y+2	; 0x02
     66e:	6f 2d       	mov	r22, r15
     670:	70 e0       	ldi	r23, 0x00	; 0
     672:	40 91 15 02 	lds	r20, 0x0215
     676:	50 91 16 02 	lds	r21, 0x0216
     67a:	64 17       	cp	r22, r20
     67c:	75 07       	cpc	r23, r21
     67e:	49 f4       	brne	.+18     	; 0x692 <KnowledgeCenterP__SysLink__responseMsg+0x6a>
     680:	90 93 0a 02 	sts	0x020A, r25
     684:	80 93 09 02 	sts	0x0209, r24
     688:	30 93 08 02 	sts	0x0208, r19
     68c:	20 93 07 02 	sts	0x0207, r18
     690:	c8 c0       	rjmp	.+400    	; 0x822 <KnowledgeCenterP__SysLink__responseMsg+0x1fa>
     692:	8f 2d       	mov	r24, r15
     694:	0e 94 83 01 	call	0x306	; 0x306 <KnowledgeCenterP__getIndex>
     698:	8a 30       	cpi	r24, 0x0A	; 10
     69a:	28 f0       	brcs	.+10     	; 0x6a6 <KnowledgeCenterP__SysLink__responseMsg+0x7e>
     69c:	0e 94 94 01 	call	0x328	; 0x328 <KnowledgeCenterP__getEmptySlot>
     6a0:	8a 30       	cpi	r24, 0x0A	; 10
     6a2:	08 f0       	brcs	.+2      	; 0x6a6 <KnowledgeCenterP__SysLink__responseMsg+0x7e>
     6a4:	be c0       	rjmp	.+380    	; 0x822 <KnowledgeCenterP__SysLink__responseMsg+0x1fa>
     6a6:	99 e0       	ldi	r25, 0x09	; 9
     6a8:	89 9f       	mul	r24, r25
     6aa:	80 01       	movw	r16, r0
     6ac:	11 24       	eor	r1, r1
     6ae:	00 57       	subi	r16, 0x70	; 112
     6b0:	1d 4f       	sbci	r17, 0xFD	; 253
     6b2:	f8 01       	movw	r30, r16
     6b4:	f1 82       	std	Z+1, r15	; 0x01
     6b6:	81 e0       	ldi	r24, 0x01	; 1
     6b8:	80 83       	st	Z, r24
     6ba:	8d 81       	ldd	r24, Y+5	; 0x05
     6bc:	82 83       	std	Z+2, r24	; 0x02
     6be:	8e 81       	ldd	r24, Y+6	; 0x06
     6c0:	83 83       	std	Z+3, r24	; 0x03
     6c2:	0e 94 9f 01 	call	0x33e	; 0x33e <Atm1281AlarmAsyncP__0__Counter__get>
     6c6:	2b 81       	ldd	r18, Y+3	; 0x03
     6c8:	30 e0       	ldi	r19, 0x00	; 0
     6ca:	32 2f       	mov	r19, r18
     6cc:	22 27       	eor	r18, r18
     6ce:	4c 81       	ldd	r20, Y+4	; 0x04
     6d0:	24 2b       	or	r18, r20
     6d2:	e8 ee       	ldi	r30, 0xE8	; 232
     6d4:	f3 e0       	ldi	r31, 0x03	; 3
     6d6:	2e 9f       	mul	r18, r30
     6d8:	a0 01       	movw	r20, r0
     6da:	2f 9f       	mul	r18, r31
     6dc:	50 0d       	add	r21, r0
     6de:	3e 9f       	mul	r19, r30
     6e0:	50 0d       	add	r21, r0
     6e2:	11 24       	eor	r1, r1
     6e4:	64 0f       	add	r22, r20
     6e6:	75 1f       	adc	r23, r21
     6e8:	81 1d       	adc	r24, r1
     6ea:	91 1d       	adc	r25, r1
     6ec:	f8 01       	movw	r30, r16
     6ee:	64 83       	std	Z+4, r22	; 0x04
     6f0:	75 83       	std	Z+5, r23	; 0x05
     6f2:	86 83       	std	Z+6, r24	; 0x06
     6f4:	97 83       	std	Z+7, r25	; 0x07
     6f6:	80 91 1c 02 	lds	r24, 0x021C
     6fa:	8f 5f       	subi	r24, 0xFF	; 255
     6fc:	80 93 1c 02 	sts	0x021C, r24
     700:	90 c0       	rjmp	.+288    	; 0x822 <KnowledgeCenterP__SysLink__responseMsg+0x1fa>
     702:	8b 81       	ldd	r24, Y+3	; 0x03
     704:	90 e0       	ldi	r25, 0x00	; 0
     706:	98 2f       	mov	r25, r24
     708:	88 27       	eor	r24, r24
     70a:	2c 81       	ldd	r18, Y+4	; 0x04
     70c:	82 2b       	or	r24, r18
     70e:	cc 97       	sbiw	r24, 0x3c	; 60
     710:	09 f4       	brne	.+2      	; 0x714 <KnowledgeCenterP__SysLink__responseMsg+0xec>
     712:	87 c0       	rjmp	.+270    	; 0x822 <KnowledgeCenterP__SysLink__responseMsg+0x1fa>
     714:	0e 94 9f 01 	call	0x33e	; 0x33e <Atm1281AlarmAsyncP__0__Counter__get>
     718:	2b 81       	ldd	r18, Y+3	; 0x03
     71a:	30 e0       	ldi	r19, 0x00	; 0
     71c:	32 2f       	mov	r19, r18
     71e:	22 27       	eor	r18, r18
     720:	4c 81       	ldd	r20, Y+4	; 0x04
     722:	24 2b       	or	r18, r20
     724:	e8 ee       	ldi	r30, 0xE8	; 232
     726:	f3 e0       	ldi	r31, 0x03	; 3
     728:	2e 9f       	mul	r18, r30
     72a:	a0 01       	movw	r20, r0
     72c:	2f 9f       	mul	r18, r31
     72e:	50 0d       	add	r21, r0
     730:	3e 9f       	mul	r19, r30
     732:	50 0d       	add	r21, r0
     734:	11 24       	eor	r1, r1
     736:	64 0f       	add	r22, r20
     738:	75 1f       	adc	r23, r21
     73a:	81 1d       	adc	r24, r1
     73c:	91 1d       	adc	r25, r1
     73e:	60 93 03 02 	sts	0x0203, r22
     742:	70 93 04 02 	sts	0x0204, r23
     746:	80 93 05 02 	sts	0x0205, r24
     74a:	90 93 06 02 	sts	0x0206, r25
     74e:	69 c0       	rjmp	.+210    	; 0x822 <KnowledgeCenterP__SysLink__responseMsg+0x1fa>
     750:	8a 81       	ldd	r24, Y+2	; 0x02
     752:	48 2f       	mov	r20, r24
     754:	50 e0       	ldi	r21, 0x00	; 0
     756:	20 91 15 02 	lds	r18, 0x0215
     75a:	30 91 16 02 	lds	r19, 0x0216
     75e:	42 17       	cp	r20, r18
     760:	53 07       	cpc	r21, r19
     762:	09 f4       	brne	.+2      	; 0x766 <KnowledgeCenterP__SysLink__responseMsg+0x13e>
     764:	5e c0       	rjmp	.+188    	; 0x822 <KnowledgeCenterP__SysLink__responseMsg+0x1fa>
     766:	0e 94 83 01 	call	0x306	; 0x306 <KnowledgeCenterP__getIndex>
     76a:	8a 30       	cpi	r24, 0x0A	; 10
     76c:	28 f0       	brcs	.+10     	; 0x778 <KnowledgeCenterP__SysLink__responseMsg+0x150>
     76e:	0e 94 94 01 	call	0x328	; 0x328 <KnowledgeCenterP__getEmptySlot>
     772:	8a 30       	cpi	r24, 0x0A	; 10
     774:	08 f0       	brcs	.+2      	; 0x778 <KnowledgeCenterP__SysLink__responseMsg+0x150>
     776:	55 c0       	rjmp	.+170    	; 0x822 <KnowledgeCenterP__SysLink__responseMsg+0x1fa>
     778:	9d 81       	ldd	r25, Y+5	; 0x05
     77a:	91 30       	cpi	r25, 0x01	; 1
     77c:	09 f4       	brne	.+2      	; 0x780 <KnowledgeCenterP__SysLink__responseMsg+0x158>
     77e:	45 c0       	rjmp	.+138    	; 0x80a <KnowledgeCenterP__SysLink__responseMsg+0x1e2>
     780:	9e 81       	ldd	r25, Y+6	; 0x06
     782:	91 30       	cpi	r25, 0x01	; 1
     784:	09 f4       	brne	.+2      	; 0x788 <KnowledgeCenterP__SysLink__responseMsg+0x160>
     786:	41 c0       	rjmp	.+130    	; 0x80a <KnowledgeCenterP__SysLink__responseMsg+0x1e2>
     788:	2b 81       	ldd	r18, Y+3	; 0x03
     78a:	30 e0       	ldi	r19, 0x00	; 0
     78c:	32 2f       	mov	r19, r18
     78e:	22 27       	eor	r18, r18
     790:	9c 81       	ldd	r25, Y+4	; 0x04
     792:	29 2b       	or	r18, r25
     794:	2c 33       	cpi	r18, 0x3C	; 60
     796:	31 05       	cpc	r19, r1
     798:	c1 f1       	breq	.+112    	; 0x80a <KnowledgeCenterP__SysLink__responseMsg+0x1e2>
     79a:	08 2f       	mov	r16, r24
     79c:	10 e0       	ldi	r17, 0x00	; 0
     79e:	0e 94 9f 01 	call	0x33e	; 0x33e <Atm1281AlarmAsyncP__0__Counter__get>
     7a2:	29 e0       	ldi	r18, 0x09	; 9
     7a4:	20 9f       	mul	r18, r16
     7a6:	f0 01       	movw	r30, r0
     7a8:	21 9f       	mul	r18, r17
     7aa:	f0 0d       	add	r31, r0
     7ac:	11 24       	eor	r1, r1
     7ae:	e0 57       	subi	r30, 0x70	; 112
     7b0:	fd 4f       	sbci	r31, 0xFD	; 253
     7b2:	2b 81       	ldd	r18, Y+3	; 0x03
     7b4:	30 e0       	ldi	r19, 0x00	; 0
     7b6:	32 2f       	mov	r19, r18
     7b8:	22 27       	eor	r18, r18
     7ba:	4c 81       	ldd	r20, Y+4	; 0x04
     7bc:	24 2b       	or	r18, r20
     7be:	a8 ee       	ldi	r26, 0xE8	; 232
     7c0:	b3 e0       	ldi	r27, 0x03	; 3
     7c2:	2a 9f       	mul	r18, r26
     7c4:	a0 01       	movw	r20, r0
     7c6:	2b 9f       	mul	r18, r27
     7c8:	50 0d       	add	r21, r0
     7ca:	3a 9f       	mul	r19, r26
     7cc:	50 0d       	add	r21, r0
     7ce:	11 24       	eor	r1, r1
     7d0:	64 0f       	add	r22, r20
     7d2:	75 1f       	adc	r23, r21
     7d4:	81 1d       	adc	r24, r1
     7d6:	91 1d       	adc	r25, r1
     7d8:	64 83       	std	Z+4, r22	; 0x04
     7da:	75 83       	std	Z+5, r23	; 0x05
     7dc:	86 83       	std	Z+6, r24	; 0x06
     7de:	97 83       	std	Z+7, r25	; 0x07
     7e0:	8d 81       	ldd	r24, Y+5	; 0x05
     7e2:	82 83       	std	Z+2, r24	; 0x02
     7e4:	8e 81       	ldd	r24, Y+6	; 0x06
     7e6:	83 83       	std	Z+3, r24	; 0x03
     7e8:	8f 81       	ldd	r24, Y+7	; 0x07
     7ea:	88 23       	and	r24, r24
     7ec:	19 f0       	breq	.+6      	; 0x7f4 <KnowledgeCenterP__SysLink__responseMsg+0x1cc>
     7ee:	81 e0       	ldi	r24, 0x01	; 1
     7f0:	80 87       	std	Z+8, r24	; 0x08
     7f2:	01 c0       	rjmp	.+2      	; 0x7f6 <KnowledgeCenterP__SysLink__responseMsg+0x1ce>
     7f4:	10 86       	std	Z+8, r1	; 0x08
     7f6:	89 e0       	ldi	r24, 0x09	; 9
     7f8:	80 9f       	mul	r24, r16
     7fa:	f0 01       	movw	r30, r0
     7fc:	81 9f       	mul	r24, r17
     7fe:	f0 0d       	add	r31, r0
     800:	11 24       	eor	r1, r1
     802:	e0 57       	subi	r30, 0x70	; 112
     804:	fd 4f       	sbci	r31, 0xFD	; 253
     806:	81 e0       	ldi	r24, 0x01	; 1
     808:	80 83       	st	Z, r24
     80a:	80 91 1b 02 	lds	r24, 0x021B
     80e:	88 23       	and	r24, r24
     810:	41 f0       	breq	.+16     	; 0x822 <KnowledgeCenterP__SysLink__responseMsg+0x1fa>
     812:	8f e0       	ldi	r24, 0x0F	; 15
     814:	df 91       	pop	r29
     816:	cf 91       	pop	r28
     818:	1f 91       	pop	r17
     81a:	0f 91       	pop	r16
     81c:	ff 90       	pop	r15
     81e:	0c 94 ec 00 	jmp	0x1d8	; 0x1d8 <SchedulerBasicP__TaskBasic__postTask>
     822:	df 91       	pop	r29
     824:	cf 91       	pop	r28
     826:	1f 91       	pop	r17
     828:	0f 91       	pop	r16
     82a:	ff 90       	pop	r15
     82c:	08 95       	ret

0000082e <RF230DriverLayerP__readRegister>:
     82e:	cf 93       	push	r28
     830:	df 93       	push	r29
     832:	1f 92       	push	r1
     834:	cd b7       	in	r28, 0x3d	; 61
     836:	de b7       	in	r29, 0x3e	; 62
     838:	89 83       	std	Y+1, r24	; 0x01
     83a:	0e 94 b3 00 	call	0x166	; 0x166 <HplAtm128GeneralIOPinP__8__IO__clr>
     83e:	89 81       	ldd	r24, Y+1	; 0x01
     840:	80 68       	ori	r24, 0x80	; 128
     842:	8e bd       	out	0x2e, r24	; 46
     844:	80 e0       	ldi	r24, 0x00	; 0
     846:	0e 94 ac 00 	call	0x158	; 0x158 <Atm128SpiP__FastSpiByte__splitReadWrite>
     84a:	0e 94 a7 00 	call	0x14e	; 0x14e <Atm128SpiP__FastSpiByte__splitRead>
     84e:	89 83       	std	Y+1, r24	; 0x01
     850:	0e 94 9c 00 	call	0x138	; 0x138 <HplAtm128GeneralIOPinP__8__IO__set>
     854:	89 81       	ldd	r24, Y+1	; 0x01
     856:	0f 90       	pop	r0
     858:	df 91       	pop	r29
     85a:	cf 91       	pop	r28
     85c:	08 95       	ret

0000085e <RF230DriverLayerP__writeRegister>:
     85e:	1f 93       	push	r17
     860:	cf 93       	push	r28
     862:	df 93       	push	r29
     864:	1f 92       	push	r1
     866:	cd b7       	in	r28, 0x3d	; 61
     868:	de b7       	in	r29, 0x3e	; 62
     86a:	18 2f       	mov	r17, r24
     86c:	69 83       	std	Y+1, r22	; 0x01
     86e:	0e 94 b3 00 	call	0x166	; 0x166 <HplAtm128GeneralIOPinP__8__IO__clr>
     872:	91 2f       	mov	r25, r17
     874:	90 6c       	ori	r25, 0xC0	; 192
     876:	9e bd       	out	0x2e, r25	; 46
     878:	89 81       	ldd	r24, Y+1	; 0x01
     87a:	0e 94 ac 00 	call	0x158	; 0x158 <Atm128SpiP__FastSpiByte__splitReadWrite>
     87e:	0e 94 a7 00 	call	0x14e	; 0x14e <Atm128SpiP__FastSpiByte__splitRead>
     882:	0f 90       	pop	r0
     884:	df 91       	pop	r29
     886:	cf 91       	pop	r28
     888:	1f 91       	pop	r17
     88a:	0c 94 9c 00 	jmp	0x138	; 0x138 <HplAtm128GeneralIOPinP__8__IO__set>

0000088e <Atm128SpiP__startSpi>:
     88e:	8c b5       	in	r24, 0x2c	; 44
     890:	8f 7b       	andi	r24, 0xBF	; 191
     892:	8c bd       	out	0x2c, r24	; 44
     894:	22 9a       	sbi	0x04, 2	; 4
     896:	23 98       	cbi	0x04, 3	; 4
     898:	21 9a       	sbi	0x04, 1	; 4
     89a:	20 9a       	sbi	0x04, 0	; 4
     89c:	8c b5       	in	r24, 0x2c	; 44
     89e:	80 61       	ori	r24, 0x10	; 16
     8a0:	8c bd       	out	0x2c, r24	; 44
     8a2:	8c b5       	in	r24, 0x2c	; 44
     8a4:	8f 77       	andi	r24, 0x7F	; 127
     8a6:	8c bd       	out	0x2c, r24	; 44
     8a8:	8c b5       	in	r24, 0x2c	; 44
     8aa:	87 7f       	andi	r24, 0xF7	; 247
     8ac:	8c bd       	out	0x2c, r24	; 44
     8ae:	8c b5       	in	r24, 0x2c	; 44
     8b0:	8b 7f       	andi	r24, 0xFB	; 251
     8b2:	8c bd       	out	0x2c, r24	; 44
     8b4:	8c b5       	in	r24, 0x2c	; 44
     8b6:	80 64       	ori	r24, 0x40	; 64
     8b8:	8c bd       	out	0x2c, r24	; 44
     8ba:	8d b5       	in	r24, 0x2d	; 45
     8bc:	81 60       	ori	r24, 0x01	; 1
     8be:	8d bd       	out	0x2d, r24	; 45
     8c0:	8c b5       	in	r24, 0x2c	; 44
     8c2:	8c 7f       	andi	r24, 0xFC	; 252
     8c4:	8c bd       	out	0x2c, r24	; 44
     8c6:	08 95       	ret

000008c8 <RF230DriverLayerP__isSpiAcquired>:
     8c8:	cf 93       	push	r28
     8ca:	8f b7       	in	r24, 0x3f	; 63
     8cc:	f8 94       	cli
     8ce:	90 91 0c 02 	lds	r25, 0x020C
     8d2:	91 11       	cpse	r25, r1
     8d4:	06 c0       	rjmp	.+12     	; 0x8e2 <RF230DriverLayerP__isSpiAcquired+0x1a>
     8d6:	90 91 20 02 	lds	r25, 0x0220
     8da:	92 30       	cpi	r25, 0x02	; 2
     8dc:	11 f4       	brne	.+4      	; 0x8e2 <RF230DriverLayerP__isSpiAcquired+0x1a>
     8de:	8f bf       	out	0x3f, r24	; 63
     8e0:	0f c0       	rjmp	.+30     	; 0x900 <RF230DriverLayerP__isSpiAcquired+0x38>
     8e2:	8f bf       	out	0x3f, r24	; 63
     8e4:	cf b7       	in	r28, 0x3f	; 63
     8e6:	f8 94       	cli
     8e8:	80 91 20 02 	lds	r24, 0x0220
     8ec:	81 11       	cpse	r24, r1
     8ee:	0a c0       	rjmp	.+20     	; 0x904 <RF230DriverLayerP__isSpiAcquired+0x3c>
     8f0:	82 e0       	ldi	r24, 0x02	; 2
     8f2:	80 93 20 02 	sts	0x0220, r24
     8f6:	10 92 0c 02 	sts	0x020C, r1
     8fa:	0e 94 47 04 	call	0x88e	; 0x88e <Atm128SpiP__startSpi>
     8fe:	cf bf       	out	0x3f, r28	; 63
     900:	81 e0       	ldi	r24, 0x01	; 1
     902:	04 c0       	rjmp	.+8      	; 0x90c <RF230DriverLayerP__isSpiAcquired+0x44>
     904:	cf bf       	out	0x3f, r28	; 63
     906:	0e 94 7e 02 	call	0x4fc	; 0x4fc <SimpleArbiterP__1__Resource__request.constprop.130>
     90a:	80 e0       	ldi	r24, 0x00	; 0
     90c:	cf 91       	pop	r28
     90e:	08 95       	ret

00000910 <Ieee154PacketLayerP__0__Ieee154PacketLayer__requiresAckReply>:
     910:	cf 93       	push	r28
     912:	df 93       	push	r29
     914:	fc 01       	movw	r30, r24
     916:	82 81       	ldd	r24, Z+2	; 0x02
     918:	90 e0       	ldi	r25, 0x00	; 0
     91a:	98 2f       	mov	r25, r24
     91c:	88 27       	eor	r24, r24
     91e:	21 81       	ldd	r18, Z+1	; 0x01
     920:	82 2b       	or	r24, r18
     922:	85 ff       	sbrs	r24, 5
     924:	14 c0       	rjmp	.+40     	; 0x94e <Ieee154PacketLayerP__0__Ieee154PacketLayer__requiresAckReply+0x3e>
     926:	87 74       	andi	r24, 0x47	; 71
     928:	9c 7c       	andi	r25, 0xCC	; 204
     92a:	81 34       	cpi	r24, 0x41	; 65
     92c:	98 48       	sbci	r25, 0x88	; 136
     92e:	79 f4       	brne	.+30     	; 0x94e <Ieee154PacketLayerP__0__Ieee154PacketLayer__requiresAckReply+0x3e>
     930:	c7 81       	ldd	r28, Z+7	; 0x07
     932:	d0 e0       	ldi	r29, 0x00	; 0
     934:	dc 2f       	mov	r29, r28
     936:	cc 27       	eor	r28, r28
     938:	86 81       	ldd	r24, Z+6	; 0x06
     93a:	c8 2b       	or	r28, r24
     93c:	0e 94 e4 00 	call	0x1c8	; 0x1c8 <ActiveMessageAddressC__amAddress>
     940:	21 e0       	ldi	r18, 0x01	; 1
     942:	c8 17       	cp	r28, r24
     944:	d9 07       	cpc	r29, r25
     946:	09 f0       	breq	.+2      	; 0x94a <Ieee154PacketLayerP__0__Ieee154PacketLayer__requiresAckReply+0x3a>
     948:	20 e0       	ldi	r18, 0x00	; 0
     94a:	82 2f       	mov	r24, r18
     94c:	01 c0       	rjmp	.+2      	; 0x950 <Ieee154PacketLayerP__0__Ieee154PacketLayer__requiresAckReply+0x40>
     94e:	80 e0       	ldi	r24, 0x00	; 0
     950:	df 91       	pop	r29
     952:	cf 91       	pop	r28
     954:	08 95       	ret

00000956 <RF230DriverLayerP__RadioSend__send>:
     956:	3f 92       	push	r3
     958:	4f 92       	push	r4
     95a:	5f 92       	push	r5
     95c:	6f 92       	push	r6
     95e:	7f 92       	push	r7
     960:	8f 92       	push	r8
     962:	9f 92       	push	r9
     964:	af 92       	push	r10
     966:	bf 92       	push	r11
     968:	cf 92       	push	r12
     96a:	df 92       	push	r13
     96c:	ef 92       	push	r14
     96e:	ff 92       	push	r15
     970:	0f 93       	push	r16
     972:	1f 93       	push	r17
     974:	cf 93       	push	r28
     976:	df 93       	push	r29
     978:	00 d0       	rcall	.+0      	; 0x97a <RF230DriverLayerP__RadioSend__send+0x24>
     97a:	00 d0       	rcall	.+0      	; 0x97c <RF230DriverLayerP__RadioSend__send+0x26>
     97c:	cd b7       	in	r28, 0x3d	; 61
     97e:	de b7       	in	r29, 0x3e	; 62
     980:	8c 01       	movw	r16, r24
     982:	80 91 52 02 	lds	r24, 0x0252
     986:	81 11       	cpse	r24, r1
     988:	40 c0       	rjmp	.+128    	; 0xa0a <RF230DriverLayerP__RadioSend__send+0xb4>
     98a:	80 91 21 04 	lds	r24, 0x0421
     98e:	85 30       	cpi	r24, 0x05	; 5
     990:	e1 f5       	brne	.+120    	; 0xa0a <RF230DriverLayerP__RadioSend__send+0xb4>
     992:	80 91 83 03 	lds	r24, 0x0383
     996:	81 11       	cpse	r24, r1
     998:	38 c0       	rjmp	.+112    	; 0xa0a <RF230DriverLayerP__RadioSend__send+0xb4>
     99a:	0e 94 64 04 	call	0x8c8	; 0x8c8 <RF230DriverLayerP__isSpiAcquired>
     99e:	88 23       	and	r24, r24
     9a0:	a1 f1       	breq	.+104    	; 0xa0a <RF230DriverLayerP__RadioSend__send+0xb4>
     9a2:	f8 01       	movw	r30, r16
     9a4:	84 a5       	ldd	r24, Z+44	; 0x2c
     9a6:	82 ff       	sbrs	r24, 2
     9a8:	03 c0       	rjmp	.+6      	; 0x9b0 <RF230DriverLayerP__RadioSend__send+0x5a>
     9aa:	66 a5       	ldd	r22, Z+46	; 0x2e
     9ac:	6f 70       	andi	r22, 0x0F	; 15
     9ae:	01 c0       	rjmp	.+2      	; 0x9b2 <RF230DriverLayerP__RadioSend__send+0x5c>
     9b0:	60 e0       	ldi	r22, 0x00	; 0
     9b2:	80 91 1d 03 	lds	r24, 0x031D
     9b6:	68 17       	cp	r22, r24
     9b8:	31 f0       	breq	.+12     	; 0x9c6 <RF230DriverLayerP__RadioSend__send+0x70>
     9ba:	60 93 1d 03 	sts	0x031D, r22
     9be:	60 68       	ori	r22, 0x80	; 128
     9c0:	85 e0       	ldi	r24, 0x05	; 5
     9c2:	0e 94 2f 04 	call	0x85e	; 0x85e <RF230DriverLayerP__writeRegister>
     9c6:	f8 01       	movw	r30, r16
     9c8:	82 81       	ldd	r24, Z+2	; 0x02
     9ca:	90 e0       	ldi	r25, 0x00	; 0
     9cc:	98 2f       	mov	r25, r24
     9ce:	88 27       	eor	r24, r24
     9d0:	21 81       	ldd	r18, Z+1	; 0x01
     9d2:	82 2b       	or	r24, r18
     9d4:	87 74       	andi	r24, 0x47	; 71
     9d6:	9c 7c       	andi	r25, 0xCC	; 204
     9d8:	81 34       	cpi	r24, 0x41	; 65
     9da:	98 48       	sbci	r25, 0x88	; 136
     9dc:	c1 f4       	brne	.+48     	; 0xa0e <RF230DriverLayerP__RadioSend__send+0xb8>
     9de:	86 e0       	ldi	r24, 0x06	; 6
     9e0:	0e 94 17 04 	call	0x82e	; 0x82e <RF230DriverLayerP__readRegister>
     9e4:	8f 71       	andi	r24, 0x1F	; 31
     9e6:	90 e0       	ldi	r25, 0x00	; 0
     9e8:	40 91 8f 02 	lds	r20, 0x028F
     9ec:	20 91 85 02 	lds	r18, 0x0285
     9f0:	30 e0       	ldi	r19, 0x00	; 0
     9f2:	24 0f       	add	r18, r20
     9f4:	31 1d       	adc	r19, r1
     9f6:	63 e0       	ldi	r22, 0x03	; 3
     9f8:	35 95       	asr	r19
     9fa:	27 95       	ror	r18
     9fc:	6a 95       	dec	r22
     9fe:	e1 f7       	brne	.-8      	; 0x9f8 <RF230DriverLayerP__RadioSend__send+0xa2>
     a00:	28 17       	cp	r18, r24
     a02:	39 07       	cpc	r19, r25
     a04:	24 f4       	brge	.+8      	; 0xa0e <RF230DriverLayerP__RadioSend__send+0xb8>
     a06:	0e 94 e1 02 	call	0x5c2	; 0x5c2 <RF230DriverLayerP__SpiResource__release>
     a0a:	85 e0       	ldi	r24, 0x05	; 5
     a0c:	a6 c0       	rjmp	.+332    	; 0xb5a <RF230DriverLayerP__RadioSend__send+0x204>
     a0e:	69 e0       	ldi	r22, 0x09	; 9
     a10:	82 e0       	ldi	r24, 0x02	; 2
     a12:	0e 94 2f 04 	call	0x85e	; 0x85e <RF230DriverLayerP__writeRegister>
     a16:	0e 94 14 01 	call	0x228	; 0x228 <TransformCounterC__0__Counter__get>
     a1a:	2b 01       	movw	r4, r22
     a1c:	3c 01       	movw	r6, r24
     a1e:	78 01       	movw	r14, r16
     a20:	2f ef       	ldi	r18, 0xFF	; 255
     a22:	e2 1a       	sub	r14, r18
     a24:	f2 0a       	sbc	r15, r18
     a26:	f8 01       	movw	r30, r16
     a28:	b0 80       	ld	r11, Z
     a2a:	84 a5       	ldd	r24, Z+44	; 0x2c
     a2c:	5e ef       	ldi	r21, 0xFE	; 254
     a2e:	95 2e       	mov	r9, r21
     a30:	9b 0c       	add	r9, r11
     a32:	84 ff       	sbrs	r24, 4
     a34:	0a c0       	rjmp	.+20     	; 0xa4a <RF230DriverLayerP__RadioSend__send+0xf4>
     a36:	4b ef       	ldi	r20, 0xFB	; 251
     a38:	a4 2e       	mov	r10, r20
     a3a:	ab 0c       	add	r10, r11
     a3c:	98 01       	movw	r18, r16
     a3e:	2e 19       	sub	r18, r14
     a40:	3f 09       	sbc	r19, r15
     a42:	a2 0e       	add	r10, r18
     a44:	39 2c       	mov	r3, r9
     a46:	3a 18       	sub	r3, r10
     a48:	02 c0       	rjmp	.+4      	; 0xa4e <RF230DriverLayerP__RadioSend__send+0xf8>
     a4a:	a9 2c       	mov	r10, r9
     a4c:	31 2c       	mov	r3, r1
     a4e:	81 e0       	ldi	r24, 0x01	; 1
     a50:	0e 94 17 04 	call	0x82e	; 0x82e <RF230DriverLayerP__readRegister>
     a54:	8f 71       	andi	r24, 0x1F	; 31
     a56:	89 30       	cpi	r24, 0x09	; 9
     a58:	29 f0       	breq	.+10     	; 0xa64 <RF230DriverLayerP__RadioSend__send+0x10e>
     a5a:	66 e0       	ldi	r22, 0x06	; 6
     a5c:	82 e0       	ldi	r24, 0x02	; 2
     a5e:	0e 94 2f 04 	call	0x85e	; 0x85e <RF230DriverLayerP__writeRegister>
     a62:	d1 cf       	rjmp	.-94     	; 0xa06 <RF230DriverLayerP__RadioSend__send+0xb0>
     a64:	8f b7       	in	r24, 0x3f	; 63
     a66:	f8 94       	cli
     a68:	2f 9a       	sbi	0x05, 7	; 5
     a6a:	c0 90 84 00 	lds	r12, 0x0084
     a6e:	d0 90 85 00 	lds	r13, 0x0085
     a72:	8f bf       	out	0x3f, r24	; 63
     a74:	0e 94 9a 00 	call	0x134	; 0x134 <HplAtm128GeneralIOPinP__15__IO__clr>
     a78:	0e 94 b3 00 	call	0x166	; 0x166 <HplAtm128GeneralIOPinP__8__IO__clr>
     a7c:	80 e6       	ldi	r24, 0x60	; 96
     a7e:	8e bd       	out	0x2e, r24	; 46
     a80:	8b 2d       	mov	r24, r11
     a82:	0e 94 ac 00 	call	0x158	; 0x158 <Atm128SpiP__FastSpiByte__splitReadWrite>
     a86:	47 01       	movw	r8, r14
     a88:	ba 2c       	mov	r11, r10
     a8a:	be 0c       	add	r11, r14
     a8c:	f4 01       	movw	r30, r8
     a8e:	81 91       	ld	r24, Z+
     a90:	4f 01       	movw	r8, r30
     a92:	0e 94 ac 00 	call	0x158	; 0x158 <Atm128SpiP__FastSpiByte__splitReadWrite>
     a96:	b8 10       	cpse	r11, r8
     a98:	f9 cf       	rjmp	.-14     	; 0xa8c <RF230DriverLayerP__RadioSend__send+0x136>
     a9a:	aa 94       	dec	r10
     a9c:	b1 2c       	mov	r11, r1
     a9e:	b7 01       	movw	r22, r14
     aa0:	6a 0d       	add	r22, r10
     aa2:	7b 1d       	adc	r23, r11
     aa4:	a5 01       	movw	r20, r10
     aa6:	4f 5f       	subi	r20, 0xFF	; 255
     aa8:	5f 4f       	sbci	r21, 0xFF	; 255
     aaa:	4e 0d       	add	r20, r14
     aac:	5f 1d       	adc	r21, r15
     aae:	96 01       	movw	r18, r12
     ab0:	2e 55       	subi	r18, 0x5E	; 94
     ab2:	3f 4f       	sbci	r19, 0xFF	; 255
     ab4:	24 19       	sub	r18, r4
     ab6:	35 09       	sbc	r19, r5
     ab8:	49 01       	movw	r8, r18
     aba:	aa 24       	eor	r10, r10
     abc:	97 fc       	sbrc	r9, 7
     abe:	a0 94       	com	r10
     ac0:	ba 2c       	mov	r11, r10
     ac2:	84 0c       	add	r8, r4
     ac4:	95 1c       	adc	r9, r5
     ac6:	a6 1c       	adc	r10, r6
     ac8:	b7 1c       	adc	r11, r7
     aca:	33 20       	and	r3, r3
     acc:	79 f1       	breq	.+94     	; 0xb2c <RF230DriverLayerP__RadioSend__send+0x1d6>
     ace:	fb 01       	movw	r30, r22
     ad0:	81 81       	ldd	r24, Z+1	; 0x01
     ad2:	c2 80       	ldd	r12, Z+2	; 0x02
     ad4:	d1 2c       	mov	r13, r1
     ad6:	e1 2c       	mov	r14, r1
     ad8:	f1 2c       	mov	r15, r1
     ada:	76 01       	movw	r14, r12
     adc:	dd 24       	eor	r13, r13
     ade:	cc 24       	eor	r12, r12
     ae0:	f8 2a       	or	r15, r24
     ae2:	84 81       	ldd	r24, Z+4	; 0x04
     ae4:	c8 2a       	or	r12, r24
     ae6:	83 81       	ldd	r24, Z+3	; 0x03
     ae8:	d8 2a       	or	r13, r24
     aea:	d7 01       	movw	r26, r14
     aec:	c6 01       	movw	r24, r12
     aee:	88 19       	sub	r24, r8
     af0:	99 09       	sbc	r25, r9
     af2:	aa 09       	sbc	r26, r10
     af4:	bb 09       	sbc	r27, r11
     af6:	84 83       	std	Z+4, r24	; 0x04
     af8:	93 83       	std	Z+3, r25	; 0x03
     afa:	a2 83       	std	Z+2, r26	; 0x02
     afc:	b1 83       	std	Z+1, r27	; 0x01
     afe:	71 2c       	mov	r7, r1
     b00:	fa 01       	movw	r30, r20
     b02:	e7 0d       	add	r30, r7
     b04:	f1 1d       	adc	r31, r1
     b06:	80 81       	ld	r24, Z
     b08:	49 83       	std	Y+1, r20	; 0x01
     b0a:	5a 83       	std	Y+2, r21	; 0x02
     b0c:	6b 83       	std	Y+3, r22	; 0x03
     b0e:	7c 83       	std	Y+4, r23	; 0x04
     b10:	0e 94 ac 00 	call	0x158	; 0x158 <Atm128SpiP__FastSpiByte__splitReadWrite>
     b14:	73 94       	inc	r7
     b16:	49 81       	ldd	r20, Y+1	; 0x01
     b18:	5a 81       	ldd	r21, Y+2	; 0x02
     b1a:	6b 81       	ldd	r22, Y+3	; 0x03
     b1c:	7c 81       	ldd	r23, Y+4	; 0x04
     b1e:	73 10       	cpse	r7, r3
     b20:	ef cf       	rjmp	.-34     	; 0xb00 <RF230DriverLayerP__RadioSend__send+0x1aa>
     b22:	fb 01       	movw	r30, r22
     b24:	c4 82       	std	Z+4, r12	; 0x04
     b26:	d3 82       	std	Z+3, r13	; 0x03
     b28:	e2 82       	std	Z+2, r14	; 0x02
     b2a:	f1 82       	std	Z+1, r15	; 0x01
     b2c:	0e 94 a7 00 	call	0x14e	; 0x14e <Atm128SpiP__FastSpiByte__splitRead>
     b30:	0e 94 9c 00 	call	0x138	; 0x138 <HplAtm128GeneralIOPinP__8__IO__set>
     b34:	66 e0       	ldi	r22, 0x06	; 6
     b36:	82 e0       	ldi	r24, 0x02	; 2
     b38:	0e 94 2f 04 	call	0x85e	; 0x85e <RF230DriverLayerP__writeRegister>
     b3c:	f8 01       	movw	r30, r16
     b3e:	84 a5       	ldd	r24, Z+44	; 0x2c
     b40:	82 60       	ori	r24, 0x02	; 2
     b42:	84 a7       	std	Z+44, r24	; 0x2c
     b44:	80 a6       	std	Z+40, r8	; 0x28
     b46:	91 a6       	std	Z+41, r9	; 0x29
     b48:	a2 a6       	std	Z+42, r10	; 0x2a
     b4a:	b3 a6       	std	Z+43, r11	; 0x2b
     b4c:	86 e0       	ldi	r24, 0x06	; 6
     b4e:	80 93 21 04 	sts	0x0421, r24
     b52:	84 e0       	ldi	r24, 0x04	; 4
     b54:	80 93 52 02 	sts	0x0252, r24
     b58:	80 e0       	ldi	r24, 0x00	; 0
     b5a:	0f 90       	pop	r0
     b5c:	0f 90       	pop	r0
     b5e:	0f 90       	pop	r0
     b60:	0f 90       	pop	r0
     b62:	df 91       	pop	r29
     b64:	cf 91       	pop	r28
     b66:	1f 91       	pop	r17
     b68:	0f 91       	pop	r16
     b6a:	ff 90       	pop	r15
     b6c:	ef 90       	pop	r14
     b6e:	df 90       	pop	r13
     b70:	cf 90       	pop	r12
     b72:	bf 90       	pop	r11
     b74:	af 90       	pop	r10
     b76:	9f 90       	pop	r9
     b78:	8f 90       	pop	r8
     b7a:	7f 90       	pop	r7
     b7c:	6f 90       	pop	r6
     b7e:	5f 90       	pop	r5
     b80:	4f 90       	pop	r4
     b82:	3f 90       	pop	r3
     b84:	08 95       	ret

00000b86 <TaskletC__0__doit>:
     b86:	2f 92       	push	r2
     b88:	3f 92       	push	r3
     b8a:	4f 92       	push	r4
     b8c:	5f 92       	push	r5
     b8e:	6f 92       	push	r6
     b90:	7f 92       	push	r7
     b92:	8f 92       	push	r8
     b94:	9f 92       	push	r9
     b96:	af 92       	push	r10
     b98:	bf 92       	push	r11
     b9a:	cf 92       	push	r12
     b9c:	df 92       	push	r13
     b9e:	ef 92       	push	r14
     ba0:	ff 92       	push	r15
     ba2:	0f 93       	push	r16
     ba4:	1f 93       	push	r17
     ba6:	cf 93       	push	r28
     ba8:	df 93       	push	r29
     baa:	00 d0       	rcall	.+0      	; 0xbac <TaskletC__0__doit+0x26>
     bac:	1f 92       	push	r1
     bae:	cd b7       	in	r28, 0x3d	; 61
     bb0:	de b7       	in	r29, 0x3e	; 62
     bb2:	44 e0       	ldi	r20, 0x04	; 4
     bb4:	f4 2e       	mov	r15, r20
     bb6:	50 e8       	ldi	r21, 0x80	; 128
     bb8:	95 2e       	mov	r9, r21
     bba:	65 e0       	ldi	r22, 0x05	; 5
     bbc:	e6 2e       	mov	r14, r22
     bbe:	73 e0       	ldi	r23, 0x03	; 3
     bc0:	d7 2e       	mov	r13, r23
     bc2:	e9 e0       	ldi	r30, 0x09	; 9
     bc4:	8e 2e       	mov	r8, r30
     bc6:	f2 e0       	ldi	r31, 0x02	; 2
     bc8:	cf 2e       	mov	r12, r31
     bca:	a8 e0       	ldi	r26, 0x08	; 8
     bcc:	ba 2e       	mov	r11, r26
     bce:	b0 e2       	ldi	r27, 0x20	; 32
     bd0:	ab 2e       	mov	r10, r27
     bd2:	80 91 76 03 	lds	r24, 0x0376
     bd6:	82 30       	cpi	r24, 0x02	; 2
     bd8:	09 f0       	breq	.+2      	; 0xbdc <TaskletC__0__doit+0x56>
     bda:	97 c0       	rjmp	.+302    	; 0xd0a <TaskletC__0__doit+0x184>
     bdc:	10 92 76 03 	sts	0x0376, r1
     be0:	20 91 ed 02 	lds	r18, 0x02ED
     be4:	22 30       	cpi	r18, 0x02	; 2
     be6:	09 f4       	brne	.+2      	; 0xbea <TaskletC__0__doit+0x64>
     be8:	73 c0       	rjmp	.+230    	; 0xcd0 <TaskletC__0__doit+0x14a>
     bea:	23 30       	cpi	r18, 0x03	; 3
     bec:	09 f4       	brne	.+2      	; 0xbf0 <TaskletC__0__doit+0x6a>
     bee:	7b c0       	rjmp	.+246    	; 0xce6 <TaskletC__0__doit+0x160>
     bf0:	21 30       	cpi	r18, 0x01	; 1
     bf2:	09 f0       	breq	.+2      	; 0xbf6 <TaskletC__0__doit+0x70>
     bf4:	8a c0       	rjmp	.+276    	; 0xd0a <TaskletC__0__doit+0x184>
     bf6:	80 91 84 00 	lds	r24, 0x0084
     bfa:	90 91 85 00 	lds	r25, 0x0085
     bfe:	60 90 4f 03 	lds	r6, 0x034F
     c02:	70 90 50 03 	lds	r7, 0x0350
     c06:	68 1a       	sub	r6, r24
     c08:	79 0a       	sbc	r7, r25
     c0a:	80 91 89 02 	lds	r24, 0x0289
     c0e:	80 38       	cpi	r24, 0x80	; 128
     c10:	51 f4       	brne	.+20     	; 0xc26 <TaskletC__0__doit+0xa0>
     c12:	10 92 89 02 	sts	0x0289, r1
     c16:	80 91 88 02 	lds	r24, 0x0288
     c1a:	82 30       	cpi	r24, 0x02	; 2
     c1c:	09 f0       	breq	.+2      	; 0xc20 <TaskletC__0__doit+0x9a>
     c1e:	75 c0       	rjmp	.+234    	; 0xd0a <TaskletC__0__doit+0x184>
     c20:	20 93 88 02 	sts	0x0288, r18
     c24:	5d c0       	rjmp	.+186    	; 0xce0 <TaskletC__0__doit+0x15a>
     c26:	87 ff       	sbrs	r24, 7
     c28:	03 c0       	rjmp	.+6      	; 0xc30 <TaskletC__0__doit+0xaa>
     c2a:	16 14       	cp	r1, r6
     c2c:	17 04       	cpc	r1, r7
     c2e:	fc f0       	brlt	.+62     	; 0xc6e <TaskletC__0__doit+0xe8>
     c30:	00 91 86 02 	lds	r16, 0x0286
     c34:	10 91 87 02 	lds	r17, 0x0287
     c38:	80 91 66 02 	lds	r24, 0x0266
     c3c:	81 11       	cpse	r24, r1
     c3e:	17 c0       	rjmp	.+46     	; 0xc6e <TaskletC__0__doit+0xe8>
     c40:	c8 01       	movw	r24, r16
     c42:	0e 94 ab 04 	call	0x956	; 0x956 <RF230DriverLayerP__RadioSend__send>
     c46:	28 2f       	mov	r18, r24
     c48:	81 11       	cpse	r24, r1
     c4a:	12 c0       	rjmp	.+36     	; 0xc70 <TaskletC__0__doit+0xea>
     c4c:	d8 01       	movw	r26, r16
     c4e:	9c 96       	adiw	r26, 0x2c	; 44
     c50:	8c 91       	ld	r24, X
     c52:	9c 97       	sbiw	r26, 0x2c	; 44
     c54:	8e 7f       	andi	r24, 0xFE	; 254
     c56:	9c 96       	adiw	r26, 0x2c	; 44
     c58:	8c 93       	st	X, r24
     c5a:	81 e0       	ldi	r24, 0x01	; 1
     c5c:	80 93 66 02 	sts	0x0266, r24
     c60:	10 93 5e 04 	sts	0x045E, r17
     c64:	00 93 5d 04 	sts	0x045D, r16
     c68:	d0 92 89 02 	sts	0x0289, r13
     c6c:	4e c0       	rjmp	.+156    	; 0xd0a <TaskletC__0__doit+0x184>
     c6e:	25 e0       	ldi	r18, 0x05	; 5
     c70:	80 91 89 02 	lds	r24, 0x0289
     c74:	98 2f       	mov	r25, r24
     c76:	9f 77       	andi	r25, 0x7F	; 127
     c78:	91 30       	cpi	r25, 0x01	; 1
     c7a:	81 f4       	brne	.+32     	; 0xc9c <TaskletC__0__doit+0x116>
     c7c:	80 78       	andi	r24, 0x80	; 128
     c7e:	82 60       	ori	r24, 0x02	; 2
     c80:	80 93 89 02 	sts	0x0289, r24
     c84:	80 e1       	ldi	r24, 0x10	; 16
     c86:	98 e0       	ldi	r25, 0x08	; 8
     c88:	0e 94 62 01 	call	0x2c4	; 0x2c4 <RandomCollisionLayerP__0__getBackoff>
     c8c:	21 e0       	ldi	r18, 0x01	; 1
     c8e:	20 93 ed 02 	sts	0x02ED, r18
     c92:	20 93 76 03 	sts	0x0376, r18
     c96:	0e 94 39 01 	call	0x272	; 0x272 <Atm128AlarmC__0__Alarm__start>
     c9a:	37 c0       	rjmp	.+110    	; 0xd0a <TaskletC__0__doit+0x184>
     c9c:	87 ff       	sbrs	r24, 7
     c9e:	10 c0       	rjmp	.+32     	; 0xcc0 <TaskletC__0__doit+0x13a>
     ca0:	16 14       	cp	r1, r6
     ca2:	17 04       	cpc	r1, r7
     ca4:	6c f4       	brge	.+26     	; 0xcc0 <TaskletC__0__doit+0x13a>
     ca6:	90 92 89 02 	sts	0x0289, r9
     caa:	81 e0       	ldi	r24, 0x01	; 1
     cac:	80 93 ed 02 	sts	0x02ED, r24
     cb0:	80 93 76 03 	sts	0x0376, r24
     cb4:	c3 01       	movw	r24, r6
     cb6:	29 83       	std	Y+1, r18	; 0x01
     cb8:	0e 94 39 01 	call	0x272	; 0x272 <Atm128AlarmC__0__Alarm__start>
     cbc:	29 81       	ldd	r18, Y+1	; 0x01
     cbe:	02 c0       	rjmp	.+4      	; 0xcc4 <TaskletC__0__doit+0x13e>
     cc0:	10 92 89 02 	sts	0x0289, r1
     cc4:	20 93 91 03 	sts	0x0391, r18
     cc8:	81 e0       	ldi	r24, 0x01	; 1
     cca:	80 93 88 02 	sts	0x0288, r24
     cce:	08 c0       	rjmp	.+16     	; 0xce0 <TaskletC__0__doit+0x15a>
     cd0:	10 92 66 02 	sts	0x0266, r1
     cd4:	10 92 89 02 	sts	0x0289, r1
     cd8:	10 92 91 03 	sts	0x0391, r1
     cdc:	f0 92 88 02 	sts	0x0288, r15
     ce0:	0e 94 11 01 	call	0x222	; 0x222 <MessageBufferLayerP__0__sendTask__postTask>
     ce4:	12 c0       	rjmp	.+36     	; 0xd0a <TaskletC__0__doit+0x184>
     ce6:	80 91 21 04 	lds	r24, 0x0421
     cea:	82 30       	cpi	r24, 0x02	; 2
     cec:	19 f4       	brne	.+6      	; 0xcf4 <TaskletC__0__doit+0x16e>
     cee:	20 93 21 04 	sts	0x0421, r18
     cf2:	09 c0       	rjmp	.+18     	; 0xd06 <TaskletC__0__doit+0x180>
     cf4:	80 91 52 02 	lds	r24, 0x0252
     cf8:	86 30       	cpi	r24, 0x06	; 6
     cfa:	29 f4       	brne	.+10     	; 0xd06 <TaskletC__0__doit+0x180>
     cfc:	10 92 52 02 	sts	0x0252, r1
     d00:	81 e0       	ldi	r24, 0x01	; 1
     d02:	0e 94 17 04 	call	0x82e	; 0x82e <RF230DriverLayerP__readRegister>
     d06:	0e 94 91 0c 	call	0x1922	; 0x1922 <TaskletC__0__Tasklet__schedule>
     d0a:	80 91 83 03 	lds	r24, 0x0383
     d0e:	88 23       	and	r24, r24
     d10:	09 f4       	brne	.+2      	; 0xd14 <TaskletC__0__doit+0x18e>
     d12:	c7 c0       	rjmp	.+398    	; 0xea2 <TaskletC__0__doit+0x31c>
     d14:	80 91 21 04 	lds	r24, 0x0421
     d18:	81 30       	cpi	r24, 0x01	; 1
     d1a:	09 f4       	brne	.+2      	; 0xd1e <TaskletC__0__doit+0x198>
     d1c:	c2 c0       	rjmp	.+388    	; 0xea2 <TaskletC__0__doit+0x31c>
     d1e:	0e 94 64 04 	call	0x8c8	; 0x8c8 <RF230DriverLayerP__isSpiAcquired>
     d22:	88 23       	and	r24, r24
     d24:	09 f4       	brne	.+2      	; 0xd28 <TaskletC__0__doit+0x1a2>
     d26:	bd c0       	rjmp	.+378    	; 0xea2 <TaskletC__0__doit+0x31c>
     d28:	8f b7       	in	r24, 0x3f	; 63
     d2a:	f8 94       	cli
     d2c:	00 91 ea 02 	lds	r16, 0x02EA
     d30:	10 91 eb 02 	lds	r17, 0x02EB
     d34:	8f bf       	out	0x3f, r24	; 63
     d36:	10 92 83 03 	sts	0x0383, r1
     d3a:	8f e0       	ldi	r24, 0x0F	; 15
     d3c:	0e 94 17 04 	call	0x82e	; 0x82e <RF230DriverLayerP__readRegister>
     d40:	78 2e       	mov	r7, r24
     d42:	80 91 52 02 	lds	r24, 0x0252
     d46:	8b 7f       	andi	r24, 0xFB	; 251
     d48:	83 30       	cpi	r24, 0x03	; 3
     d4a:	21 f4       	brne	.+8      	; 0xd54 <TaskletC__0__doit+0x1ce>
     d4c:	e0 92 21 04 	sts	0x0421, r14
     d50:	b0 92 52 02 	sts	0x0252, r11
     d54:	72 fe       	sbrs	r7, 2
     d56:	48 c0       	rjmp	.+144    	; 0xde8 <TaskletC__0__doit+0x262>
     d58:	80 91 52 02 	lds	r24, 0x0252
     d5c:	86 30       	cpi	r24, 0x06	; 6
     d5e:	11 f4       	brne	.+4      	; 0xd64 <TaskletC__0__doit+0x1de>
     d60:	10 92 52 02 	sts	0x0252, r1
     d64:	80 91 52 02 	lds	r24, 0x0252
     d68:	81 11       	cpse	r24, r1
     d6a:	3e c0       	rjmp	.+124    	; 0xde8 <TaskletC__0__doit+0x262>
     d6c:	b4 e0       	ldi	r27, 0x04	; 4
     d6e:	7b 12       	cpse	r7, r27
     d70:	32 c0       	rjmp	.+100    	; 0xdd6 <TaskletC__0__doit+0x250>
     d72:	86 e0       	ldi	r24, 0x06	; 6
     d74:	0e 94 17 04 	call	0x82e	; 0x82e <RF230DriverLayerP__readRegister>
     d78:	8f 71       	andi	r24, 0x1F	; 31
     d7a:	90 91 85 02 	lds	r25, 0x0285
     d7e:	29 2f       	mov	r18, r25
     d80:	26 95       	lsr	r18
     d82:	26 95       	lsr	r18
     d84:	92 1b       	sub	r25, r18
     d86:	98 0f       	add	r25, r24
     d88:	90 93 85 02 	sts	0x0285, r25
     d8c:	e0 91 5f 02 	lds	r30, 0x025F
     d90:	f0 91 60 02 	lds	r31, 0x0260
     d94:	94 a5       	ldd	r25, Z+44	; 0x2c
     d96:	9b 7f       	andi	r25, 0xFB	; 251
     d98:	98 60       	ori	r25, 0x08	; 8
     d9a:	94 a7       	std	Z+44, r25	; 0x2c
     d9c:	86 a7       	std	Z+46, r24	; 0x2e
     d9e:	0e 94 14 01 	call	0x228	; 0x228 <TransformCounterC__0__Counter__get>
     da2:	a8 01       	movw	r20, r16
     da4:	47 50       	subi	r20, 0x07	; 7
     da6:	51 09       	sbc	r21, r1
     da8:	46 1b       	sub	r20, r22
     daa:	57 0b       	sbc	r21, r23
     dac:	1a 01       	movw	r2, r20
     dae:	44 24       	eor	r4, r4
     db0:	37 fc       	sbrc	r3, 7
     db2:	40 94       	com	r4
     db4:	54 2c       	mov	r5, r4
     db6:	e0 91 5f 02 	lds	r30, 0x025F
     dba:	f0 91 60 02 	lds	r31, 0x0260
     dbe:	24 a5       	ldd	r18, Z+44	; 0x2c
     dc0:	22 60       	ori	r18, 0x02	; 2
     dc2:	24 a7       	std	Z+44, r18	; 0x2c
     dc4:	26 0e       	add	r2, r22
     dc6:	37 1e       	adc	r3, r23
     dc8:	48 1e       	adc	r4, r24
     dca:	59 1e       	adc	r5, r25
     dcc:	20 a6       	std	Z+40, r2	; 0x28
     dce:	31 a6       	std	Z+41, r3	; 0x29
     dd0:	42 a6       	std	Z+42, r4	; 0x2a
     dd2:	53 a6       	std	Z+43, r5	; 0x2b
     dd4:	07 c0       	rjmp	.+14     	; 0xde4 <TaskletC__0__doit+0x25e>
     dd6:	e0 91 5f 02 	lds	r30, 0x025F
     dda:	f0 91 60 02 	lds	r31, 0x0260
     dde:	84 a5       	ldd	r24, Z+44	; 0x2c
     de0:	85 7f       	andi	r24, 0xF5	; 245
     de2:	84 a7       	std	Z+44, r24	; 0x2c
     de4:	e0 92 52 02 	sts	0x0252, r14
     de8:	73 fe       	sbrs	r7, 3
     dea:	5b c0       	rjmp	.+182    	; 0xea2 <TaskletC__0__doit+0x31c>
     dec:	80 91 52 02 	lds	r24, 0x0252
     df0:	84 30       	cpi	r24, 0x04	; 4
     df2:	09 f0       	breq	.+2      	; 0xdf6 <TaskletC__0__doit+0x270>
     df4:	45 c0       	rjmp	.+138    	; 0xe80 <TaskletC__0__doit+0x2fa>
     df6:	e0 92 21 04 	sts	0x0421, r14
     dfa:	10 92 52 02 	sts	0x0252, r1
     dfe:	80 91 66 02 	lds	r24, 0x0266
     e02:	83 30       	cpi	r24, 0x03	; 3
     e04:	19 f4       	brne	.+6      	; 0xe0c <TaskletC__0__doit+0x286>
     e06:	10 92 66 02 	sts	0x0266, r1
     e0a:	4b c0       	rjmp	.+150    	; 0xea2 <TaskletC__0__doit+0x31c>
     e0c:	e0 91 5d 04 	lds	r30, 0x045D
     e10:	f0 91 5e 04 	lds	r31, 0x045E
     e14:	82 81       	ldd	r24, Z+2	; 0x02
     e16:	90 e0       	ldi	r25, 0x00	; 0
     e18:	98 2f       	mov	r25, r24
     e1a:	88 27       	eor	r24, r24
     e1c:	21 81       	ldd	r18, Z+1	; 0x01
     e1e:	82 2b       	or	r24, r18
     e20:	85 ff       	sbrs	r24, 5
     e22:	23 c0       	rjmp	.+70     	; 0xe6a <TaskletC__0__doit+0x2e4>
     e24:	87 74       	andi	r24, 0x47	; 71
     e26:	9c 7c       	andi	r25, 0xCC	; 204
     e28:	81 34       	cpi	r24, 0x41	; 65
     e2a:	98 48       	sbci	r25, 0x88	; 136
     e2c:	f1 f4       	brne	.+60     	; 0xe6a <TaskletC__0__doit+0x2e4>
     e2e:	87 81       	ldd	r24, Z+7	; 0x07
     e30:	90 e0       	ldi	r25, 0x00	; 0
     e32:	98 2f       	mov	r25, r24
     e34:	88 27       	eor	r24, r24
     e36:	26 81       	ldd	r18, Z+6	; 0x06
     e38:	82 2b       	or	r24, r18
     e3a:	21 e0       	ldi	r18, 0x01	; 1
     e3c:	30 e0       	ldi	r19, 0x00	; 0
     e3e:	01 96       	adiw	r24, 0x01	; 1
     e40:	11 f4       	brne	.+4      	; 0xe46 <TaskletC__0__doit+0x2c0>
     e42:	20 e0       	ldi	r18, 0x00	; 0
     e44:	30 e0       	ldi	r19, 0x00	; 0
     e46:	23 2b       	or	r18, r19
     e48:	81 f0       	breq	.+32     	; 0xe6a <TaskletC__0__doit+0x2e4>
     e4a:	80 91 76 03 	lds	r24, 0x0376
     e4e:	81 11       	cpse	r24, r1
     e50:	0c c0       	rjmp	.+24     	; 0xe6a <TaskletC__0__doit+0x2e4>
     e52:	c0 92 ed 02 	sts	0x02ED, r12
     e56:	81 e0       	ldi	r24, 0x01	; 1
     e58:	80 93 76 03 	sts	0x0376, r24
     e5c:	89 e9       	ldi	r24, 0x99	; 153
     e5e:	93 e0       	ldi	r25, 0x03	; 3
     e60:	0e 94 39 01 	call	0x272	; 0x272 <Atm128AlarmC__0__Alarm__start>
     e64:	c0 92 66 02 	sts	0x0266, r12
     e68:	1c c0       	rjmp	.+56     	; 0xea2 <TaskletC__0__doit+0x31c>
     e6a:	10 92 66 02 	sts	0x0266, r1
     e6e:	10 92 89 02 	sts	0x0289, r1
     e72:	10 92 91 03 	sts	0x0391, r1
     e76:	f0 92 88 02 	sts	0x0288, r15
     e7a:	0e 94 11 01 	call	0x222	; 0x222 <MessageBufferLayerP__0__sendTask__postTask>
     e7e:	11 c0       	rjmp	.+34     	; 0xea2 <TaskletC__0__doit+0x31c>
     e80:	85 30       	cpi	r24, 0x05	; 5
     e82:	79 f4       	brne	.+30     	; 0xea2 <TaskletC__0__doit+0x31c>
     e84:	86 e0       	ldi	r24, 0x06	; 6
     e86:	0e 94 17 04 	call	0x82e	; 0x82e <RF230DriverLayerP__readRegister>
     e8a:	90 91 8f 02 	lds	r25, 0x028F
     e8e:	29 2f       	mov	r18, r25
     e90:	26 95       	lsr	r18
     e92:	26 95       	lsr	r18
     e94:	92 1b       	sub	r25, r18
     e96:	8f 71       	andi	r24, 0x1F	; 31
     e98:	98 0f       	add	r25, r24
     e9a:	90 93 8f 02 	sts	0x028F, r25
     e9e:	80 92 52 02 	sts	0x0252, r8
     ea2:	80 91 52 02 	lds	r24, 0x0252
     ea6:	88 23       	and	r24, r24
     ea8:	09 f4       	brne	.+2      	; 0xeac <TaskletC__0__doit+0x326>
     eaa:	4f c2       	rjmp	.+1182   	; 0x134a <TaskletC__0__doit+0x7c4>
     eac:	89 30       	cpi	r24, 0x09	; 9
     eae:	09 f0       	breq	.+2      	; 0xeb2 <TaskletC__0__doit+0x32c>
     eb0:	c0 c1       	rjmp	.+896    	; 0x1232 <TaskletC__0__doit+0x6ac>
     eb2:	0e 94 b3 00 	call	0x166	; 0x166 <HplAtm128GeneralIOPinP__8__IO__clr>
     eb6:	ae bc       	out	0x2e, r10	; 46
     eb8:	0d b4       	in	r0, 0x2d	; 45
     eba:	07 fe       	sbrs	r0, 7
     ebc:	fd cf       	rjmp	.-6      	; 0xeb8 <TaskletC__0__doit+0x332>
     ebe:	8e b5       	in	r24, 0x2e	; 46
     ec0:	1e bc       	out	0x2e, r1	; 46
     ec2:	0d b4       	in	r0, 0x2d	; 45
     ec4:	07 fe       	sbrs	r0, 7
     ec6:	fd cf       	rjmp	.-6      	; 0xec2 <TaskletC__0__doit+0x33c>
     ec8:	8e b5       	in	r24, 0x2e	; 46
     eca:	9d ef       	ldi	r25, 0xFD	; 253
     ecc:	98 0f       	add	r25, r24
     ece:	97 32       	cpi	r25, 0x27	; 39
     ed0:	08 f0       	brcs	.+2      	; 0xed4 <TaskletC__0__doit+0x34e>
     ed2:	73 c0       	rjmp	.+230    	; 0xfba <TaskletC__0__doit+0x434>
     ed4:	1e bc       	out	0x2e, r1	; 46
     ed6:	e0 91 5f 02 	lds	r30, 0x025F
     eda:	f0 91 60 02 	lds	r31, 0x0260
     ede:	3f 01       	movw	r6, r30
     ee0:	5f ef       	ldi	r21, 0xFF	; 255
     ee2:	65 1a       	sub	r6, r21
     ee4:	75 0a       	sbc	r7, r21
     ee6:	80 83       	st	Z, r24
     ee8:	9e ef       	ldi	r25, 0xFE	; 254
     eea:	49 2e       	mov	r4, r25
     eec:	48 0e       	add	r4, r24
     eee:	86 e0       	ldi	r24, 0x06	; 6
     ef0:	84 15       	cp	r24, r4
     ef2:	18 f4       	brcc	.+6      	; 0xefa <TaskletC__0__doit+0x374>
     ef4:	87 e0       	ldi	r24, 0x07	; 7
     ef6:	58 2e       	mov	r5, r24
     ef8:	01 c0       	rjmp	.+2      	; 0xefc <TaskletC__0__doit+0x376>
     efa:	54 2c       	mov	r5, r4
     efc:	6a 82       	std	Y+2, r6	; 0x02
     efe:	7b 82       	std	Y+3, r7	; 0x03
     f00:	00 e0       	ldi	r16, 0x00	; 0
     f02:	10 e0       	ldi	r17, 0x00	; 0
     f04:	35 2c       	mov	r3, r5
     f06:	36 0c       	add	r3, r6
     f08:	80 e0       	ldi	r24, 0x00	; 0
     f0a:	0e 94 ac 00 	call	0x158	; 0x158 <Atm128SpiP__FastSpiByte__splitReadWrite>
     f0e:	aa 81       	ldd	r26, Y+2	; 0x02
     f10:	bb 81       	ldd	r27, Y+3	; 0x03
     f12:	8d 93       	st	X+, r24
     f14:	bb 83       	std	Y+3, r27	; 0x03
     f16:	aa 83       	std	Y+2, r26	; 0x02
     f18:	68 2f       	mov	r22, r24
     f1a:	c8 01       	movw	r24, r16
     f1c:	0e 94 b5 00 	call	0x16a	; 0x16a <_crc_ccitt_update>
     f20:	8c 01       	movw	r16, r24
     f22:	ba 81       	ldd	r27, Y+2	; 0x02
     f24:	3b 12       	cpse	r3, r27
     f26:	f0 cf       	rjmp	.-32     	; 0xf08 <TaskletC__0__doit+0x382>
     f28:	8f ef       	ldi	r24, 0xFF	; 255
     f2a:	85 0d       	add	r24, r5
     f2c:	90 e0       	ldi	r25, 0x00	; 0
     f2e:	01 96       	adiw	r24, 0x01	; 1
     f30:	86 0d       	add	r24, r6
     f32:	97 1d       	adc	r25, r7
     f34:	e0 91 5f 02 	lds	r30, 0x025F
     f38:	f0 91 60 02 	lds	r31, 0x0260
     f3c:	21 81       	ldd	r18, Z+1	; 0x01
     f3e:	27 70       	andi	r18, 0x07	; 7
     f40:	22 30       	cpi	r18, 0x02	; 2
     f42:	29 f4       	brne	.+10     	; 0xf4e <TaskletC__0__doit+0x3c8>
     f44:	20 91 66 02 	lds	r18, 0x0266
     f48:	22 30       	cpi	r18, 0x02	; 2
     f4a:	a9 f5       	brne	.+106    	; 0xfb6 <TaskletC__0__doit+0x430>
     f4c:	0b c0       	rjmp	.+22     	; 0xf64 <TaskletC__0__doit+0x3de>
     f4e:	3f b7       	in	r19, 0x3f	; 63
     f50:	f8 94       	cli
     f52:	21 e0       	ldi	r18, 0x01	; 1
     f54:	40 91 7d 03 	lds	r20, 0x037D
     f58:	43 30       	cpi	r20, 0x03	; 3
     f5a:	08 f0       	brcs	.+2      	; 0xf5e <TaskletC__0__doit+0x3d8>
     f5c:	20 e0       	ldi	r18, 0x00	; 0
     f5e:	3f bf       	out	0x3f, r19	; 63
     f60:	22 23       	and	r18, r18
     f62:	49 f1       	breq	.+82     	; 0xfb6 <TaskletC__0__doit+0x430>
     f64:	74 2c       	mov	r7, r4
     f66:	75 18       	sub	r7, r5
     f68:	2c 01       	movw	r4, r24
     f6a:	78 0e       	add	r7, r24
     f6c:	80 e0       	ldi	r24, 0x00	; 0
     f6e:	74 14       	cp	r7, r4
     f70:	59 f0       	breq	.+22     	; 0xf88 <TaskletC__0__doit+0x402>
     f72:	0e 94 ac 00 	call	0x158	; 0x158 <Atm128SpiP__FastSpiByte__splitReadWrite>
     f76:	f2 01       	movw	r30, r4
     f78:	81 93       	st	Z+, r24
     f7a:	2f 01       	movw	r4, r30
     f7c:	68 2f       	mov	r22, r24
     f7e:	c8 01       	movw	r24, r16
     f80:	0e 94 b5 00 	call	0x16a	; 0x16a <_crc_ccitt_update>
     f84:	8c 01       	movw	r16, r24
     f86:	f2 cf       	rjmp	.-28     	; 0xf6c <TaskletC__0__doit+0x3e6>
     f88:	0e 94 ac 00 	call	0x158	; 0x158 <Atm128SpiP__FastSpiByte__splitReadWrite>
     f8c:	68 2f       	mov	r22, r24
     f8e:	c8 01       	movw	r24, r16
     f90:	0e 94 b5 00 	call	0x16a	; 0x16a <_crc_ccitt_update>
     f94:	8c 01       	movw	r16, r24
     f96:	80 e0       	ldi	r24, 0x00	; 0
     f98:	0e 94 ac 00 	call	0x158	; 0x158 <Atm128SpiP__FastSpiByte__splitReadWrite>
     f9c:	68 2f       	mov	r22, r24
     f9e:	c8 01       	movw	r24, r16
     fa0:	0e 94 b5 00 	call	0x16a	; 0x16a <_crc_ccitt_update>
     fa4:	8c 01       	movw	r16, r24
     fa6:	0e 94 a7 00 	call	0x14e	; 0x14e <Atm128SpiP__FastSpiByte__splitRead>
     faa:	e0 91 5f 02 	lds	r30, 0x025F
     fae:	f0 91 60 02 	lds	r31, 0x0260
     fb2:	85 a7       	std	Z+45, r24	; 0x2d
     fb4:	04 c0       	rjmp	.+8      	; 0xfbe <TaskletC__0__doit+0x438>
     fb6:	0e 94 a7 00 	call	0x14e	; 0x14e <Atm128SpiP__FastSpiByte__splitRead>
     fba:	01 e0       	ldi	r16, 0x01	; 1
     fbc:	10 e0       	ldi	r17, 0x00	; 0
     fbe:	0e 94 9c 00 	call	0x138	; 0x138 <HplAtm128GeneralIOPinP__8__IO__set>
     fc2:	e0 92 21 04 	sts	0x0421, r14
     fc6:	10 92 52 02 	sts	0x0252, r1
     fca:	01 2b       	or	r16, r17
     fcc:	09 f0       	breq	.+2      	; 0xfd0 <TaskletC__0__doit+0x44a>
     fce:	b4 c1       	rjmp	.+872    	; 0x1338 <TaskletC__0__doit+0x7b2>
     fd0:	40 90 5f 02 	lds	r4, 0x025F
     fd4:	50 90 60 02 	lds	r5, 0x0260
     fd8:	d2 01       	movw	r26, r4
     fda:	11 96       	adiw	r26, 0x01	; 1
     fdc:	8c 91       	ld	r24, X
     fde:	11 97       	sbiw	r26, 0x01	; 1
     fe0:	87 70       	andi	r24, 0x07	; 7
     fe2:	90 91 66 02 	lds	r25, 0x0266
     fe6:	82 30       	cpi	r24, 0x02	; 2
     fe8:	29 f5       	brne	.+74     	; 0x1034 <TaskletC__0__doit+0x4ae>
     fea:	92 30       	cpi	r25, 0x02	; 2
     fec:	09 f0       	breq	.+2      	; 0xff0 <TaskletC__0__doit+0x46a>
     fee:	1c c1       	rjmp	.+568    	; 0x1228 <TaskletC__0__doit+0x6a2>
     ff0:	e0 91 5d 04 	lds	r30, 0x045D
     ff4:	f0 91 5e 04 	lds	r31, 0x045E
     ff8:	13 96       	adiw	r26, 0x03	; 3
     ffa:	9c 91       	ld	r25, X
     ffc:	83 81       	ldd	r24, Z+3	; 0x03
     ffe:	98 13       	cpse	r25, r24
    1000:	13 c1       	rjmp	.+550    	; 0x1228 <TaskletC__0__doit+0x6a2>
    1002:	80 91 6f 00 	lds	r24, 0x006F
    1006:	8d 7f       	andi	r24, 0xFD	; 253
    1008:	80 93 6f 00 	sts	0x006F, r24
    100c:	10 92 76 03 	sts	0x0376, r1
    1010:	e0 91 5d 04 	lds	r30, 0x045D
    1014:	f0 91 5e 04 	lds	r31, 0x045E
    1018:	84 a5       	ldd	r24, Z+44	; 0x2c
    101a:	81 60       	ori	r24, 0x01	; 1
    101c:	84 a7       	std	Z+44, r24	; 0x2c
    101e:	10 92 66 02 	sts	0x0266, r1
    1022:	10 92 89 02 	sts	0x0289, r1
    1026:	10 92 91 03 	sts	0x0391, r1
    102a:	f0 92 88 02 	sts	0x0288, r15
    102e:	0e 94 11 01 	call	0x222	; 0x222 <MessageBufferLayerP__0__sendTask__postTask>
    1032:	fa c0       	rjmp	.+500    	; 0x1228 <TaskletC__0__doit+0x6a2>
    1034:	91 11       	cpse	r25, r1
    1036:	17 c0       	rjmp	.+46     	; 0x1066 <TaskletC__0__doit+0x4e0>
    1038:	c2 01       	movw	r24, r4
    103a:	0e 94 88 04 	call	0x910	; 0x910 <Ieee154PacketLayerP__0__Ieee154PacketLayer__requiresAckReply>
    103e:	88 23       	and	r24, r24
    1040:	91 f0       	breq	.+36     	; 0x1066 <TaskletC__0__doit+0x4e0>
    1042:	e0 92 1e 03 	sts	0x031E, r14
    1046:	c0 92 1f 03 	sts	0x031F, r12
    104a:	10 92 20 03 	sts	0x0320, r1
    104e:	f2 01       	movw	r30, r4
    1050:	83 81       	ldd	r24, Z+3	; 0x03
    1052:	80 93 21 03 	sts	0x0321, r24
    1056:	8e e1       	ldi	r24, 0x1E	; 30
    1058:	93 e0       	ldi	r25, 0x03	; 3
    105a:	0e 94 ab 04 	call	0x956	; 0x956 <RF230DriverLayerP__RadioSend__send>
    105e:	81 11       	cpse	r24, r1
    1060:	02 c0       	rjmp	.+4      	; 0x1066 <TaskletC__0__doit+0x4e0>
    1062:	d0 92 66 02 	sts	0x0266, r13
    1066:	00 91 84 00 	lds	r16, 0x0084
    106a:	10 91 85 00 	lds	r17, 0x0085
    106e:	c2 01       	movw	r24, r4
    1070:	0e 94 88 04 	call	0x910	; 0x910 <Ieee154PacketLayerP__0__Ieee154PacketLayer__requiresAckReply>
    1074:	88 23       	and	r24, r24
    1076:	11 f0       	breq	.+4      	; 0x107c <TaskletC__0__doit+0x4f6>
    1078:	04 5e       	subi	r16, 0xE4	; 228
    107a:	1c 4f       	sbci	r17, 0xFC	; 252
    107c:	10 93 50 03 	sts	0x0350, r17
    1080:	00 93 4f 03 	sts	0x034F, r16
    1084:	80 91 84 00 	lds	r24, 0x0084
    1088:	90 91 85 00 	lds	r25, 0x0085
    108c:	98 01       	movw	r18, r16
    108e:	28 1b       	sub	r18, r24
    1090:	39 0b       	sbc	r19, r25
    1092:	c9 01       	movw	r24, r18
    1094:	18 16       	cp	r1, r24
    1096:	19 06       	cpc	r1, r25
    1098:	ac f4       	brge	.+42     	; 0x10c4 <TaskletC__0__doit+0x53e>
    109a:	20 91 89 02 	lds	r18, 0x0289
    109e:	21 11       	cpse	r18, r1
    10a0:	0e c0       	rjmp	.+28     	; 0x10be <TaskletC__0__doit+0x538>
    10a2:	20 91 76 03 	lds	r18, 0x0376
    10a6:	21 11       	cpse	r18, r1
    10a8:	0d c0       	rjmp	.+26     	; 0x10c4 <TaskletC__0__doit+0x53e>
    10aa:	21 e0       	ldi	r18, 0x01	; 1
    10ac:	20 93 ed 02 	sts	0x02ED, r18
    10b0:	20 93 76 03 	sts	0x0376, r18
    10b4:	0e 94 39 01 	call	0x272	; 0x272 <Atm128AlarmC__0__Alarm__start>
    10b8:	90 92 89 02 	sts	0x0289, r9
    10bc:	03 c0       	rjmp	.+6      	; 0x10c4 <TaskletC__0__doit+0x53e>
    10be:	20 68       	ori	r18, 0x80	; 128
    10c0:	20 93 89 02 	sts	0x0289, r18
    10c4:	d2 01       	movw	r26, r4
    10c6:	19 96       	adiw	r26, 0x09	; 9
    10c8:	2c 91       	ld	r18, X
    10ca:	19 97       	sbiw	r26, 0x09	; 9
    10cc:	30 e0       	ldi	r19, 0x00	; 0
    10ce:	32 2f       	mov	r19, r18
    10d0:	22 27       	eor	r18, r18
    10d2:	18 96       	adiw	r26, 0x08	; 8
    10d4:	8c 91       	ld	r24, X
    10d6:	28 2b       	or	r18, r24
    10d8:	80 91 5b 04 	lds	r24, 0x045B
    10dc:	a8 2f       	mov	r26, r24
    10de:	b0 e0       	ldi	r27, 0x00	; 0
    10e0:	fd 01       	movw	r30, r26
    10e2:	ee 0f       	add	r30, r30
    10e4:	ff 1f       	adc	r31, r31
    10e6:	e0 5a       	subi	r30, 0xA0	; 160
    10e8:	fb 4f       	sbci	r31, 0xFB	; 251
    10ea:	40 81       	ld	r20, Z
    10ec:	51 81       	ldd	r21, Z+1	; 0x01
    10ee:	60 91 5f 04 	lds	r22, 0x045F
    10f2:	42 17       	cp	r20, r18
    10f4:	53 07       	cpc	r21, r19
    10f6:	59 f4       	brne	.+22     	; 0x110e <TaskletC__0__doit+0x588>
    10f8:	a5 58       	subi	r26, 0x85	; 133
    10fa:	bd 4f       	sbci	r27, 0xFD	; 253
    10fc:	9c 91       	ld	r25, X
    10fe:	96 17       	cp	r25, r22
    1100:	09 f4       	brne	.+2      	; 0x1104 <TaskletC__0__doit+0x57e>
    1102:	60 c0       	rjmp	.+192    	; 0x11c4 <TaskletC__0__doit+0x63e>
    1104:	6f 5f       	subi	r22, 0xFF	; 255
    1106:	60 93 5f 04 	sts	0x045F, r22
    110a:	6c 93       	st	X, r22
    110c:	1b c0       	rjmp	.+54     	; 0x1144 <TaskletC__0__doit+0x5be>
    110e:	a0 e6       	ldi	r26, 0x60	; 96
    1110:	b4 e0       	ldi	r27, 0x04	; 4
    1112:	eb e7       	ldi	r30, 0x7B	; 123
    1114:	f2 e0       	ldi	r31, 0x02	; 2
    1116:	80 e0       	ldi	r24, 0x00	; 0
    1118:	90 e0       	ldi	r25, 0x00	; 0
    111a:	00 e0       	ldi	r16, 0x00	; 0
    111c:	10 e0       	ldi	r17, 0x00	; 0
    111e:	78 2f       	mov	r23, r24
    1120:	4d 91       	ld	r20, X+
    1122:	5d 91       	ld	r21, X+
    1124:	42 17       	cp	r20, r18
    1126:	53 07       	cpc	r21, r19
    1128:	79 f4       	brne	.+30     	; 0x1148 <TaskletC__0__doit+0x5c2>
    112a:	80 93 5b 04 	sts	0x045B, r24
    112e:	fc 01       	movw	r30, r24
    1130:	e5 58       	subi	r30, 0x85	; 133
    1132:	fd 4f       	sbci	r31, 0xFD	; 253
    1134:	20 81       	ld	r18, Z
    1136:	26 17       	cp	r18, r22
    1138:	09 f4       	brne	.+2      	; 0x113c <TaskletC__0__doit+0x5b6>
    113a:	44 c0       	rjmp	.+136    	; 0x11c4 <TaskletC__0__doit+0x63e>
    113c:	6f 5f       	subi	r22, 0xFF	; 255
    113e:	60 93 5f 04 	sts	0x045F, r22
    1142:	60 83       	st	Z, r22
    1144:	40 e8       	ldi	r20, 0x80	; 128
    1146:	25 c0       	rjmp	.+74     	; 0x1192 <TaskletC__0__doit+0x60c>
    1148:	41 91       	ld	r20, Z+
    114a:	56 2f       	mov	r21, r22
    114c:	54 1b       	sub	r21, r20
    114e:	45 2f       	mov	r20, r21
    1150:	15 17       	cp	r17, r21
    1152:	10 f0       	brcs	.+4      	; 0x1158 <TaskletC__0__doit+0x5d2>
    1154:	70 2f       	mov	r23, r16
    1156:	41 2f       	mov	r20, r17
    1158:	01 96       	adiw	r24, 0x01	; 1
    115a:	85 30       	cpi	r24, 0x05	; 5
    115c:	91 05       	cpc	r25, r1
    115e:	19 f0       	breq	.+6      	; 0x1166 <TaskletC__0__doit+0x5e0>
    1160:	07 2f       	mov	r16, r23
    1162:	14 2f       	mov	r17, r20
    1164:	dc cf       	rjmp	.-72     	; 0x111e <TaskletC__0__doit+0x598>
    1166:	70 93 5b 04 	sts	0x045B, r23
    116a:	87 2f       	mov	r24, r23
    116c:	90 e0       	ldi	r25, 0x00	; 0
    116e:	fc 01       	movw	r30, r24
    1170:	ee 0f       	add	r30, r30
    1172:	ff 1f       	adc	r31, r31
    1174:	e0 5a       	subi	r30, 0xA0	; 160
    1176:	fb 4f       	sbci	r31, 0xFB	; 251
    1178:	31 83       	std	Z+1, r19	; 0x01
    117a:	20 83       	st	Z, r18
    117c:	6f 5f       	subi	r22, 0xFF	; 255
    117e:	60 93 5f 04 	sts	0x045F, r22
    1182:	fc 01       	movw	r30, r24
    1184:	e5 58       	subi	r30, 0x85	; 133
    1186:	fd 4f       	sbci	r31, 0xFD	; 253
    1188:	60 83       	st	Z, r22
    118a:	fc 01       	movw	r30, r24
    118c:	ef 59       	subi	r30, 0x9F	; 159
    118e:	fd 4f       	sbci	r31, 0xFD	; 253
    1190:	10 82       	st	Z, r1
    1192:	80 91 5f 04 	lds	r24, 0x045F
    1196:	98 2f       	mov	r25, r24
    1198:	9f 77       	andi	r25, 0x7F	; 127
    119a:	9f 37       	cpi	r25, 0x7F	; 127
    119c:	19 f0       	breq	.+6      	; 0x11a4 <TaskletC__0__doit+0x61e>
    119e:	80 91 5b 04 	lds	r24, 0x045B
    11a2:	10 c0       	rjmp	.+32     	; 0x11c4 <TaskletC__0__doit+0x63e>
    11a4:	4f 37       	cpi	r20, 0x7F	; 127
    11a6:	d8 f3       	brcs	.-10     	; 0x119e <TaskletC__0__doit+0x618>
    11a8:	eb e7       	ldi	r30, 0x7B	; 123
    11aa:	f2 e0       	ldi	r31, 0x02	; 2
    11ac:	28 2f       	mov	r18, r24
    11ae:	20 78       	andi	r18, 0x80	; 128
    11b0:	90 81       	ld	r25, Z
    11b2:	9f 67       	ori	r25, 0x7F	; 127
    11b4:	98 13       	cpse	r25, r24
    11b6:	20 83       	st	Z, r18
    11b8:	31 96       	adiw	r30, 0x01	; 1
    11ba:	92 e0       	ldi	r25, 0x02	; 2
    11bc:	e0 38       	cpi	r30, 0x80	; 128
    11be:	f9 07       	cpc	r31, r25
    11c0:	b9 f7       	brne	.-18     	; 0x11b0 <TaskletC__0__doit+0x62a>
    11c2:	ed cf       	rjmp	.-38     	; 0x119e <TaskletC__0__doit+0x618>
    11c4:	d2 01       	movw	r26, r4
    11c6:	13 96       	adiw	r26, 0x03	; 3
    11c8:	9c 91       	ld	r25, X
    11ca:	e8 2f       	mov	r30, r24
    11cc:	f0 e0       	ldi	r31, 0x00	; 0
    11ce:	df 01       	movw	r26, r30
    11d0:	af 59       	subi	r26, 0x9F	; 159
    11d2:	bd 4f       	sbci	r27, 0xFD	; 253
    11d4:	8c 91       	ld	r24, X
    11d6:	e2 58       	subi	r30, 0x82	; 130
    11d8:	fc 4f       	sbci	r31, 0xFC	; 252
    11da:	80 ff       	sbrs	r24, 0
    11dc:	04 c0       	rjmp	.+8      	; 0x11e6 <TaskletC__0__doit+0x660>
    11de:	80 81       	ld	r24, Z
    11e0:	98 13       	cpse	r25, r24
    11e2:	03 c0       	rjmp	.+6      	; 0x11ea <TaskletC__0__doit+0x664>
    11e4:	21 c0       	rjmp	.+66     	; 0x1228 <TaskletC__0__doit+0x6a2>
    11e6:	81 60       	ori	r24, 0x01	; 1
    11e8:	8c 93       	st	X, r24
    11ea:	90 83       	st	Z, r25
    11ec:	1f b7       	in	r17, 0x3f	; 63
    11ee:	f8 94       	cli
    11f0:	80 91 7d 03 	lds	r24, 0x037D
    11f4:	83 30       	cpi	r24, 0x03	; 3
    11f6:	b8 f4       	brcc	.+46     	; 0x1226 <TaskletC__0__doit+0x6a0>
    11f8:	e0 91 8b 03 	lds	r30, 0x038B
    11fc:	e8 0f       	add	r30, r24
    11fe:	e3 30       	cpi	r30, 0x03	; 3
    1200:	08 f0       	brcs	.+2      	; 0x1204 <TaskletC__0__doit+0x67e>
    1202:	e3 50       	subi	r30, 0x03	; 3
    1204:	f0 e0       	ldi	r31, 0x00	; 0
    1206:	ee 0f       	add	r30, r30
    1208:	ff 1f       	adc	r31, r31
    120a:	eb 5a       	subi	r30, 0xAB	; 171
    120c:	fd 4f       	sbci	r31, 0xFD	; 253
    120e:	70 80       	ld	r7, Z
    1210:	01 81       	ldd	r16, Z+1	; 0x01
    1212:	51 82       	std	Z+1, r5	; 0x01
    1214:	40 82       	st	Z, r4
    1216:	8f 5f       	subi	r24, 0xFF	; 255
    1218:	80 93 7d 03 	sts	0x037D, r24
    121c:	83 e0       	ldi	r24, 0x03	; 3
    121e:	0e 94 ec 00 	call	0x1d8	; 0x1d8 <SchedulerBasicP__TaskBasic__postTask>
    1222:	47 2c       	mov	r4, r7
    1224:	50 2e       	mov	r5, r16
    1226:	1f bf       	out	0x3f, r17	; 63
    1228:	50 92 60 02 	sts	0x0260, r5
    122c:	40 92 5f 02 	sts	0x025F, r4
    1230:	83 c0       	rjmp	.+262    	; 0x1338 <TaskletC__0__doit+0x7b2>
    1232:	9f ef       	ldi	r25, 0xFF	; 255
    1234:	98 0f       	add	r25, r24
    1236:	93 30       	cpi	r25, 0x03	; 3
    1238:	08 f0       	brcs	.+2      	; 0x123c <TaskletC__0__doit+0x6b6>
    123a:	69 c0       	rjmp	.+210    	; 0x130e <TaskletC__0__doit+0x788>
    123c:	9e ef       	ldi	r25, 0xFE	; 254
    123e:	98 0f       	add	r25, r24
    1240:	92 30       	cpi	r25, 0x02	; 2
    1242:	c0 f5       	brcc	.+112    	; 0x12b4 <TaskletC__0__doit+0x72e>
    1244:	10 91 21 04 	lds	r17, 0x0421
    1248:	11 30       	cpi	r17, 0x01	; 1
    124a:	89 f4       	brne	.+34     	; 0x126e <TaskletC__0__doit+0x6e8>
    124c:	80 91 76 03 	lds	r24, 0x0376
    1250:	81 11       	cpse	r24, r1
    1252:	30 c0       	rjmp	.+96     	; 0x12b4 <TaskletC__0__doit+0x72e>
    1254:	0e 94 9a 00 	call	0x134	; 0x134 <HplAtm128GeneralIOPinP__15__IO__clr>
    1258:	d0 92 ed 02 	sts	0x02ED, r13
    125c:	10 93 76 03 	sts	0x0376, r17
    1260:	8b e2       	ldi	r24, 0x2B	; 43
    1262:	93 e0       	ldi	r25, 0x03	; 3
    1264:	0e 94 39 01 	call	0x272	; 0x272 <Atm128AlarmC__0__Alarm__start>
    1268:	c0 92 21 04 	sts	0x0421, r12
    126c:	3d c0       	rjmp	.+122    	; 0x12e8 <TaskletC__0__doit+0x762>
    126e:	83 30       	cpi	r24, 0x03	; 3
    1270:	09 f5       	brne	.+66     	; 0x12b4 <TaskletC__0__doit+0x72e>
    1272:	13 30       	cpi	r17, 0x03	; 3
    1274:	f9 f4       	brne	.+62     	; 0x12b4 <TaskletC__0__doit+0x72e>
    1276:	0e 94 64 04 	call	0x8c8	; 0x8c8 <RF230DriverLayerP__isSpiAcquired>
    127a:	88 23       	and	r24, r24
    127c:	d9 f0       	breq	.+54     	; 0x12b4 <TaskletC__0__doit+0x72e>
    127e:	8f e0       	ldi	r24, 0x0F	; 15
    1280:	0e 94 17 04 	call	0x82e	; 0x82e <RF230DriverLayerP__readRegister>
    1284:	80 91 81 00 	lds	r24, 0x0081
    1288:	80 64       	ori	r24, 0x40	; 64
    128a:	80 93 81 00 	sts	0x0081, r24
    128e:	a6 ba       	out	0x16, r10	; 22
    1290:	80 91 6f 00 	lds	r24, 0x006F
    1294:	80 62       	ori	r24, 0x20	; 32
    1296:	80 93 6f 00 	sts	0x006F, r24
    129a:	60 91 81 02 	lds	r22, 0x0281
    129e:	60 66       	ori	r22, 0x60	; 96
    12a0:	88 e0       	ldi	r24, 0x08	; 8
    12a2:	0e 94 2f 04 	call	0x85e	; 0x85e <RF230DriverLayerP__writeRegister>
    12a6:	66 e0       	ldi	r22, 0x06	; 6
    12a8:	82 e0       	ldi	r24, 0x02	; 2
    12aa:	0e 94 2f 04 	call	0x85e	; 0x85e <RF230DriverLayerP__writeRegister>
    12ae:	f0 92 21 04 	sts	0x0421, r15
    12b2:	1a c0       	rjmp	.+52     	; 0x12e8 <TaskletC__0__doit+0x762>
    12b4:	80 91 52 02 	lds	r24, 0x0252
    12b8:	81 50       	subi	r24, 0x01	; 1
    12ba:	82 30       	cpi	r24, 0x02	; 2
    12bc:	a8 f4       	brcc	.+42     	; 0x12e8 <TaskletC__0__doit+0x762>
    12be:	80 91 21 04 	lds	r24, 0x0421
    12c2:	85 30       	cpi	r24, 0x05	; 5
    12c4:	89 f4       	brne	.+34     	; 0x12e8 <TaskletC__0__doit+0x762>
    12c6:	0e 94 64 04 	call	0x8c8	; 0x8c8 <RF230DriverLayerP__isSpiAcquired>
    12ca:	88 23       	and	r24, r24
    12cc:	69 f0       	breq	.+26     	; 0x12e8 <TaskletC__0__doit+0x762>
    12ce:	63 e0       	ldi	r22, 0x03	; 3
    12d0:	82 e0       	ldi	r24, 0x02	; 2
    12d2:	0e 94 2f 04 	call	0x85e	; 0x85e <RF230DriverLayerP__writeRegister>
    12d6:	80 91 6f 00 	lds	r24, 0x006F
    12da:	8f 7d       	andi	r24, 0xDF	; 223
    12dc:	80 93 6f 00 	sts	0x006F, r24
    12e0:	10 92 83 03 	sts	0x0383, r1
    12e4:	d0 92 21 04 	sts	0x0421, r13
    12e8:	80 91 52 02 	lds	r24, 0x0252
    12ec:	81 30       	cpi	r24, 0x01	; 1
    12ee:	41 f4       	brne	.+16     	; 0x1300 <TaskletC__0__doit+0x77a>
    12f0:	90 91 21 04 	lds	r25, 0x0421
    12f4:	93 30       	cpi	r25, 0x03	; 3
    12f6:	01 f5       	brne	.+64     	; 0x1338 <TaskletC__0__doit+0x7b2>
    12f8:	2f 9a       	sbi	0x05, 7	; 5
    12fa:	80 93 21 04 	sts	0x0421, r24
    12fe:	1a c0       	rjmp	.+52     	; 0x1334 <TaskletC__0__doit+0x7ae>
    1300:	82 30       	cpi	r24, 0x02	; 2
    1302:	d1 f4       	brne	.+52     	; 0x1338 <TaskletC__0__doit+0x7b2>
    1304:	80 91 21 04 	lds	r24, 0x0421
    1308:	83 30       	cpi	r24, 0x03	; 3
    130a:	b1 f4       	brne	.+44     	; 0x1338 <TaskletC__0__doit+0x7b2>
    130c:	13 c0       	rjmp	.+38     	; 0x1334 <TaskletC__0__doit+0x7ae>
    130e:	87 30       	cpi	r24, 0x07	; 7
    1310:	99 f4       	brne	.+38     	; 0x1338 <TaskletC__0__doit+0x7b2>
    1312:	0e 94 64 04 	call	0x8c8	; 0x8c8 <RF230DriverLayerP__isSpiAcquired>
    1316:	88 23       	and	r24, r24
    1318:	79 f0       	breq	.+30     	; 0x1338 <TaskletC__0__doit+0x7b2>
    131a:	60 91 81 02 	lds	r22, 0x0281
    131e:	60 66       	ori	r22, 0x60	; 96
    1320:	88 e0       	ldi	r24, 0x08	; 8
    1322:	0e 94 2f 04 	call	0x85e	; 0x85e <RF230DriverLayerP__writeRegister>
    1326:	80 91 21 04 	lds	r24, 0x0421
    132a:	85 30       	cpi	r24, 0x05	; 5
    132c:	19 f4       	brne	.+6      	; 0x1334 <TaskletC__0__doit+0x7ae>
    132e:	f0 92 21 04 	sts	0x0421, r15
    1332:	02 c0       	rjmp	.+4      	; 0x1338 <TaskletC__0__doit+0x7b2>
    1334:	b0 92 52 02 	sts	0x0252, r11
    1338:	80 91 52 02 	lds	r24, 0x0252
    133c:	88 30       	cpi	r24, 0x08	; 8
    133e:	29 f4       	brne	.+10     	; 0x134a <TaskletC__0__doit+0x7c4>
    1340:	10 92 52 02 	sts	0x0252, r1
    1344:	81 e0       	ldi	r24, 0x01	; 1
    1346:	0e 94 ec 00 	call	0x1d8	; 0x1d8 <SchedulerBasicP__TaskBasic__postTask>
    134a:	80 91 52 02 	lds	r24, 0x0252
    134e:	81 11       	cpse	r24, r1
    1350:	1d c0       	rjmp	.+58     	; 0x138c <TaskletC__0__doit+0x806>
    1352:	80 91 21 04 	lds	r24, 0x0421
    1356:	85 30       	cpi	r24, 0x05	; 5
    1358:	c9 f4       	brne	.+50     	; 0x138c <TaskletC__0__doit+0x806>
    135a:	80 91 83 03 	lds	r24, 0x0383
    135e:	81 11       	cpse	r24, r1
    1360:	15 c0       	rjmp	.+42     	; 0x138c <TaskletC__0__doit+0x806>
    1362:	80 91 66 02 	lds	r24, 0x0266
    1366:	81 11       	cpse	r24, r1
    1368:	11 c0       	rjmp	.+34     	; 0x138c <TaskletC__0__doit+0x806>
    136a:	80 91 89 02 	lds	r24, 0x0289
    136e:	81 11       	cpse	r24, r1
    1370:	0d c0       	rjmp	.+26     	; 0x138c <TaskletC__0__doit+0x806>
    1372:	80 91 76 03 	lds	r24, 0x0376
    1376:	81 11       	cpse	r24, r1
    1378:	09 c0       	rjmp	.+18     	; 0x138c <TaskletC__0__doit+0x806>
    137a:	80 91 88 02 	lds	r24, 0x0288
    137e:	82 30       	cpi	r24, 0x02	; 2
    1380:	29 f4       	brne	.+10     	; 0x138c <TaskletC__0__doit+0x806>
    1382:	81 e0       	ldi	r24, 0x01	; 1
    1384:	80 93 88 02 	sts	0x0288, r24
    1388:	0e 94 11 01 	call	0x222	; 0x222 <MessageBufferLayerP__0__sendTask__postTask>
    138c:	80 91 52 02 	lds	r24, 0x0252
    1390:	81 11       	cpse	r24, r1
    1392:	03 c0       	rjmp	.+6      	; 0x139a <TaskletC__0__doit+0x814>
    1394:	87 e0       	ldi	r24, 0x07	; 7
    1396:	0e 94 ec 00 	call	0x1d8	; 0x1d8 <SchedulerBasicP__TaskBasic__postTask>
    139a:	8f b7       	in	r24, 0x3f	; 63
    139c:	f8 94       	cli
    139e:	90 91 7c 03 	lds	r25, 0x037C
    13a2:	91 30       	cpi	r25, 0x01	; 1
    13a4:	c9 f4       	brne	.+50     	; 0x13d8 <TaskletC__0__doit+0x852>
    13a6:	10 92 7c 03 	sts	0x037C, r1
    13aa:	8f bf       	out	0x3f, r24	; 63
    13ac:	0f 90       	pop	r0
    13ae:	0f 90       	pop	r0
    13b0:	0f 90       	pop	r0
    13b2:	df 91       	pop	r29
    13b4:	cf 91       	pop	r28
    13b6:	1f 91       	pop	r17
    13b8:	0f 91       	pop	r16
    13ba:	ff 90       	pop	r15
    13bc:	ef 90       	pop	r14
    13be:	df 90       	pop	r13
    13c0:	cf 90       	pop	r12
    13c2:	bf 90       	pop	r11
    13c4:	af 90       	pop	r10
    13c6:	9f 90       	pop	r9
    13c8:	8f 90       	pop	r8
    13ca:	7f 90       	pop	r7
    13cc:	6f 90       	pop	r6
    13ce:	5f 90       	pop	r5
    13d0:	4f 90       	pop	r4
    13d2:	3f 90       	pop	r3
    13d4:	2f 90       	pop	r2
    13d6:	08 95       	ret
    13d8:	91 e0       	ldi	r25, 0x01	; 1
    13da:	90 93 7c 03 	sts	0x037C, r25
    13de:	8f bf       	out	0x3f, r24	; 63
    13e0:	f8 cb       	rjmp	.-2064   	; 0xbd2 <TaskletC__0__doit+0x4c>

000013e2 <TaskletC__0__Tasklet__resume>:
    13e2:	9f b7       	in	r25, 0x3f	; 63
    13e4:	f8 94       	cli
    13e6:	80 91 7c 03 	lds	r24, 0x037C
    13ea:	81 50       	subi	r24, 0x01	; 1
    13ec:	80 93 7c 03 	sts	0x037C, r24
    13f0:	80 38       	cpi	r24, 0x80	; 128
    13f2:	11 f0       	breq	.+4      	; 0x13f8 <TaskletC__0__Tasklet__resume+0x16>
    13f4:	9f bf       	out	0x3f, r25	; 63
    13f6:	08 95       	ret
    13f8:	81 e0       	ldi	r24, 0x01	; 1
    13fa:	80 93 7c 03 	sts	0x037C, r24
    13fe:	9f bf       	out	0x3f, r25	; 63
    1400:	0c 94 c3 05 	jmp	0xb86	; 0xb86 <TaskletC__0__doit>

00001404 <TinyosNetworkLayerC__0__TinyosSend__send>:
    1404:	0f 93       	push	r16
    1406:	1f 93       	push	r17
    1408:	cf 93       	push	r28
    140a:	df 93       	push	r29
    140c:	1f 92       	push	r1
    140e:	cd b7       	in	r28, 0x3d	; 61
    1410:	de b7       	in	r29, 0x3e	; 62
    1412:	8c 01       	movw	r16, r24
    1414:	8f e3       	ldi	r24, 0x3F	; 63
    1416:	f8 01       	movw	r30, r16
    1418:	82 87       	std	Z+10, r24	; 0x0a
    141a:	80 91 22 02 	lds	r24, 0x0222
    141e:	8f 5f       	subi	r24, 0xFF	; 255
    1420:	80 93 22 02 	sts	0x0222, r24
    1424:	83 83       	std	Z+3, r24	; 0x03
    1426:	0e 94 9e 00 	call	0x13c	; 0x13c <TaskletC__0__Tasklet__suspend>
    142a:	80 91 88 02 	lds	r24, 0x0288
    142e:	81 11       	cpse	r24, r1
    1430:	0d c0       	rjmp	.+26     	; 0x144c <TinyosNetworkLayerC__0__TinyosSend__send+0x48>
    1432:	10 93 79 03 	sts	0x0379, r17
    1436:	00 93 78 03 	sts	0x0378, r16
    143a:	81 e0       	ldi	r24, 0x01	; 1
    143c:	80 93 88 02 	sts	0x0288, r24
    1440:	10 92 77 03 	sts	0x0377, r1
    1444:	0e 94 11 01 	call	0x222	; 0x222 <MessageBufferLayerP__0__sendTask__postTask>
    1448:	80 e0       	ldi	r24, 0x00	; 0
    144a:	01 c0       	rjmp	.+2      	; 0x144e <TinyosNetworkLayerC__0__TinyosSend__send+0x4a>
    144c:	85 e0       	ldi	r24, 0x05	; 5
    144e:	89 83       	std	Y+1, r24	; 0x01
    1450:	0e 94 f1 09 	call	0x13e2	; 0x13e2 <TaskletC__0__Tasklet__resume>
    1454:	89 81       	ldd	r24, Y+1	; 0x01
    1456:	0f 90       	pop	r0
    1458:	df 91       	pop	r29
    145a:	cf 91       	pop	r28
    145c:	1f 91       	pop	r17
    145e:	0f 91       	pop	r16
    1460:	08 95       	ret

00001462 <ActiveMessageLayerP__0__AMSend__send>:
    1462:	ef 92       	push	r14
    1464:	ff 92       	push	r15
    1466:	1f 93       	push	r17
    1468:	cf 93       	push	r28
    146a:	df 93       	push	r29
    146c:	00 d0       	rcall	.+0      	; 0x146e <ActiveMessageLayerP__0__AMSend__send+0xc>
    146e:	cd b7       	in	r28, 0x3d	; 61
    1470:	de b7       	in	r29, 0x3e	; 62
    1472:	18 2f       	mov	r17, r24
    1474:	7a 01       	movw	r14, r20
    1476:	2d 31       	cpi	r18, 0x1D	; 29
    1478:	08 f0       	brcs	.+2      	; 0x147c <ActiveMessageLayerP__0__AMSend__send+0x1a>
    147a:	78 c0       	rjmp	.+240    	; 0x156c <ActiveMessageLayerP__0__AMSend__send+0x10a>
    147c:	fa 01       	movw	r30, r20
    147e:	42 81       	ldd	r20, Z+2	; 0x02
    1480:	50 e0       	ldi	r21, 0x00	; 0
    1482:	54 2f       	mov	r21, r20
    1484:	44 27       	eor	r20, r20
    1486:	81 81       	ldd	r24, Z+1	; 0x01
    1488:	48 2b       	or	r20, r24
    148a:	fa 01       	movw	r30, r20
    148c:	e7 74       	andi	r30, 0x47	; 71
    148e:	fc 7c       	andi	r31, 0xCC	; 204
    1490:	e1 34       	cpi	r30, 0x41	; 65
    1492:	f8 48       	sbci	r31, 0x88	; 136
    1494:	41 f0       	breq	.+16     	; 0x14a6 <ActiveMessageLayerP__0__AMSend__send+0x44>
    1496:	40 73       	andi	r20, 0x30	; 48
    1498:	55 27       	eor	r21, r21
    149a:	41 64       	ori	r20, 0x41	; 65
    149c:	58 68       	ori	r21, 0x88	; 136
    149e:	f7 01       	movw	r30, r14
    14a0:	41 83       	std	Z+1, r20	; 0x01
    14a2:	88 e8       	ldi	r24, 0x88	; 136
    14a4:	82 83       	std	Z+2, r24	; 0x02
    14a6:	23 5f       	subi	r18, 0xF3	; 243
    14a8:	f7 01       	movw	r30, r14
    14aa:	20 83       	st	Z, r18
    14ac:	69 83       	std	Y+1, r22	; 0x01
    14ae:	7a 83       	std	Y+2, r23	; 0x02
    14b0:	0e 94 e4 00 	call	0x1c8	; 0x1c8 <ActiveMessageAddressC__amAddress>
    14b4:	f7 01       	movw	r30, r14
    14b6:	80 87       	std	Z+8, r24	; 0x08
    14b8:	91 87       	std	Z+9, r25	; 0x09
    14ba:	9f b7       	in	r25, 0x3f	; 63
    14bc:	f8 94       	cli
    14be:	80 91 12 02 	lds	r24, 0x0212
    14c2:	9f bf       	out	0x3f, r25	; 63
    14c4:	f7 01       	movw	r30, r14
    14c6:	84 83       	std	Z+4, r24	; 0x04
    14c8:	15 82       	std	Z+5, r1	; 0x05
    14ca:	13 87       	std	Z+11, r17	; 0x0b
    14cc:	69 81       	ldd	r22, Y+1	; 0x01
    14ce:	66 83       	std	Z+6, r22	; 0x06
    14d0:	7a 81       	ldd	r23, Y+2	; 0x02
    14d2:	77 83       	std	Z+7, r23	; 0x07
    14d4:	8f b7       	in	r24, 0x3f	; 63
    14d6:	f8 94       	cli
    14d8:	90 91 21 02 	lds	r25, 0x0221
    14dc:	91 11       	cpse	r25, r1
    14de:	10 c0       	rjmp	.+32     	; 0x1500 <ActiveMessageLayerP__0__AMSend__send+0x9e>
    14e0:	92 e0       	ldi	r25, 0x02	; 2
    14e2:	90 93 21 02 	sts	0x0221, r25
    14e6:	10 92 0f 02 	sts	0x020F, r1
    14ea:	8f bf       	out	0x3f, r24	; 63
    14ec:	c7 01       	movw	r24, r14
    14ee:	0e 94 02 0a 	call	0x1404	; 0x1404 <TinyosNetworkLayerC__0__TinyosSend__send>
    14f2:	18 2f       	mov	r17, r24
    14f4:	88 23       	and	r24, r24
    14f6:	c1 f0       	breq	.+48     	; 0x1528 <ActiveMessageLayerP__0__AMSend__send+0xc6>
    14f8:	0e 94 b1 02 	call	0x562	; 0x562 <SimpleArbiterP__0__Resource__release.constprop.139>
    14fc:	81 2f       	mov	r24, r17
    14fe:	37 c0       	rjmp	.+110    	; 0x156e <ActiveMessageLayerP__0__AMSend__send+0x10c>
    1500:	8f bf       	out	0x3f, r24	; 63
    1502:	f0 92 83 02 	sts	0x0283, r15
    1506:	e0 92 82 02 	sts	0x0282, r14
    150a:	1f b7       	in	r17, 0x3f	; 63
    150c:	f8 94       	cli
    150e:	80 91 21 02 	lds	r24, 0x0221
    1512:	81 11       	cpse	r24, r1
    1514:	0b c0       	rjmp	.+22     	; 0x152c <ActiveMessageLayerP__0__AMSend__send+0xca>
    1516:	81 e0       	ldi	r24, 0x01	; 1
    1518:	80 93 21 02 	sts	0x0221, r24
    151c:	10 92 0f 02 	sts	0x020F, r1
    1520:	80 e0       	ldi	r24, 0x00	; 0
    1522:	0e 94 ec 00 	call	0x1d8	; 0x1d8 <SchedulerBasicP__TaskBasic__postTask>
    1526:	1f bf       	out	0x3f, r17	; 63
    1528:	80 e0       	ldi	r24, 0x00	; 0
    152a:	21 c0       	rjmp	.+66     	; 0x156e <ActiveMessageLayerP__0__AMSend__send+0x10c>
    152c:	80 91 84 02 	lds	r24, 0x0284
    1530:	8f 3f       	cpi	r24, 0xFF	; 255
    1532:	c9 f4       	brne	.+50     	; 0x1566 <ActiveMessageLayerP__0__AMSend__send+0x104>
    1534:	81 e0       	ldi	r24, 0x01	; 1
    1536:	90 e0       	ldi	r25, 0x00	; 0
    1538:	e0 91 10 02 	lds	r30, 0x0210
    153c:	ee 23       	and	r30, r30
    153e:	11 f0       	breq	.+4      	; 0x1544 <ActiveMessageLayerP__0__AMSend__send+0xe2>
    1540:	80 e0       	ldi	r24, 0x00	; 0
    1542:	90 e0       	ldi	r25, 0x00	; 0
    1544:	89 2b       	or	r24, r25
    1546:	79 f4       	brne	.+30     	; 0x1566 <ActiveMessageLayerP__0__AMSend__send+0x104>
    1548:	80 91 11 02 	lds	r24, 0x0211
    154c:	8f 3f       	cpi	r24, 0xFF	; 255
    154e:	19 f4       	brne	.+6      	; 0x1556 <ActiveMessageLayerP__0__AMSend__send+0xf4>
    1550:	10 92 11 02 	sts	0x0211, r1
    1554:	04 c0       	rjmp	.+8      	; 0x155e <ActiveMessageLayerP__0__AMSend__send+0xfc>
    1556:	f0 e0       	ldi	r31, 0x00	; 0
    1558:	ec 57       	subi	r30, 0x7C	; 124
    155a:	fd 4f       	sbci	r31, 0xFD	; 253
    155c:	10 82       	st	Z, r1
    155e:	10 92 10 02 	sts	0x0210, r1
    1562:	80 e0       	ldi	r24, 0x00	; 0
    1564:	01 c0       	rjmp	.+2      	; 0x1568 <ActiveMessageLayerP__0__AMSend__send+0x106>
    1566:	85 e0       	ldi	r24, 0x05	; 5
    1568:	1f bf       	out	0x3f, r17	; 63
    156a:	01 c0       	rjmp	.+2      	; 0x156e <ActiveMessageLayerP__0__AMSend__send+0x10c>
    156c:	86 e0       	ldi	r24, 0x06	; 6
    156e:	0f 90       	pop	r0
    1570:	0f 90       	pop	r0
    1572:	df 91       	pop	r29
    1574:	cf 91       	pop	r28
    1576:	1f 91       	pop	r17
    1578:	ff 90       	pop	r15
    157a:	ef 90       	pop	r14
    157c:	08 95       	ret

0000157e <AMQueueImplP__0__sendDone.isra.93>:
    157e:	1f 93       	push	r17
    1580:	cf 93       	push	r28
    1582:	df 93       	push	r29
    1584:	18 2f       	mov	r17, r24
    1586:	eb 01       	movw	r28, r22
    1588:	e8 2f       	mov	r30, r24
    158a:	f0 e0       	ldi	r31, 0x00	; 0
    158c:	ee 0f       	add	r30, r30
    158e:	ff 1f       	adc	r31, r31
    1590:	ef 5a       	subi	r30, 0xAF	; 175
    1592:	fc 4f       	sbci	r31, 0xFC	; 252
    1594:	11 82       	std	Z+1, r1	; 0x01
    1596:	10 82       	st	Z, r1
    1598:	20 91 0b 02 	lds	r18, 0x020B
    159c:	2f 5f       	subi	r18, 0xFF	; 255
    159e:	21 70       	andi	r18, 0x01	; 1
    15a0:	62 e0       	ldi	r22, 0x02	; 2
    15a2:	82 2f       	mov	r24, r18
    15a4:	90 e0       	ldi	r25, 0x00	; 0
    15a6:	fc 01       	movw	r30, r24
    15a8:	ee 0f       	add	r30, r30
    15aa:	ff 1f       	adc	r31, r31
    15ac:	ef 5a       	subi	r30, 0xAF	; 175
    15ae:	fc 4f       	sbci	r31, 0xFC	; 252
    15b0:	40 81       	ld	r20, Z
    15b2:	51 81       	ldd	r21, Z+1	; 0x01
    15b4:	45 2b       	or	r20, r21
    15b6:	91 f0       	breq	.+36     	; 0x15dc <AMQueueImplP__0__sendDone.isra.93+0x5e>
    15b8:	e2 2f       	mov	r30, r18
    15ba:	e6 95       	lsr	r30
    15bc:	e6 95       	lsr	r30
    15be:	e6 95       	lsr	r30
    15c0:	f0 e0       	ldi	r31, 0x00	; 0
    15c2:	e4 57       	subi	r30, 0x74	; 116
    15c4:	fc 4f       	sbci	r31, 0xFC	; 252
    15c6:	40 81       	ld	r20, Z
    15c8:	50 e0       	ldi	r21, 0x00	; 0
    15ca:	32 2f       	mov	r19, r18
    15cc:	37 70       	andi	r19, 0x07	; 7
    15ce:	02 c0       	rjmp	.+4      	; 0x15d4 <AMQueueImplP__0__sendDone.isra.93+0x56>
    15d0:	55 95       	asr	r21
    15d2:	47 95       	ror	r20
    15d4:	3a 95       	dec	r19
    15d6:	e2 f7       	brpl	.-8      	; 0x15d0 <AMQueueImplP__0__sendDone.isra.93+0x52>
    15d8:	40 ff       	sbrs	r20, 0
    15da:	0b c0       	rjmp	.+22     	; 0x15f2 <AMQueueImplP__0__sendDone.isra.93+0x74>
    15dc:	9c 01       	movw	r18, r24
    15de:	2f 5f       	subi	r18, 0xFF	; 255
    15e0:	3f 4f       	sbci	r19, 0xFF	; 255
    15e2:	21 70       	andi	r18, 0x01	; 1
    15e4:	33 27       	eor	r19, r19
    15e6:	61 50       	subi	r22, 0x01	; 1
    15e8:	e1 f6       	brne	.-72     	; 0x15a2 <AMQueueImplP__0__sendDone.isra.93+0x24>
    15ea:	82 e0       	ldi	r24, 0x02	; 2
    15ec:	80 93 0b 02 	sts	0x020B, r24
    15f0:	02 c0       	rjmp	.+4      	; 0x15f6 <AMQueueImplP__0__sendDone.isra.93+0x78>
    15f2:	20 93 0b 02 	sts	0x020B, r18
    15f6:	e0 91 0b 02 	lds	r30, 0x020B
    15fa:	e2 30       	cpi	r30, 0x02	; 2
    15fc:	c8 f4       	brcc	.+50     	; 0x1630 <AMQueueImplP__0__sendDone.isra.93+0xb2>
    15fe:	f0 e0       	ldi	r31, 0x00	; 0
    1600:	ee 0f       	add	r30, r30
    1602:	ff 1f       	adc	r31, r31
    1604:	ef 5a       	subi	r30, 0xAF	; 175
    1606:	fc 4f       	sbci	r31, 0xFC	; 252
    1608:	01 90       	ld	r0, Z+
    160a:	f0 81       	ld	r31, Z
    160c:	e0 2d       	mov	r30, r0
    160e:	20 81       	ld	r18, Z
    1610:	2d 50       	subi	r18, 0x0D	; 13
    1612:	a7 81       	ldd	r26, Z+7	; 0x07
    1614:	b0 e0       	ldi	r27, 0x00	; 0
    1616:	7a 2f       	mov	r23, r26
    1618:	66 27       	eor	r22, r22
    161a:	86 81       	ldd	r24, Z+6	; 0x06
    161c:	68 2b       	or	r22, r24
    161e:	af 01       	movw	r20, r30
    1620:	83 85       	ldd	r24, Z+11	; 0x0b
    1622:	0e 94 31 0a 	call	0x1462	; 0x1462 <ActiveMessageLayerP__0__AMSend__send>
    1626:	88 23       	and	r24, r24
    1628:	19 f0       	breq	.+6      	; 0x1630 <AMQueueImplP__0__sendDone.isra.93+0xb2>
    162a:	8b e0       	ldi	r24, 0x0B	; 11
    162c:	0e 94 ec 00 	call	0x1d8	; 0x1d8 <SchedulerBasicP__TaskBasic__postTask>
    1630:	be 01       	movw	r22, r28
    1632:	81 2f       	mov	r24, r17
    1634:	df 91       	pop	r29
    1636:	cf 91       	pop	r28
    1638:	1f 91       	pop	r17
    163a:	0c 94 58 02 	jmp	0x4b0	; 0x4b0 <AMQueueImplP__0__Send__sendDone.isra.41>

0000163e <AMQueueImplP__0__AMSend__sendDone.isra.94>:
    163e:	20 91 0b 02 	lds	r18, 0x020B
    1642:	22 30       	cpi	r18, 0x02	; 2
    1644:	70 f4       	brcc	.+28     	; 0x1662 <AMQueueImplP__0__AMSend__sendDone.isra.94+0x24>
    1646:	e2 2f       	mov	r30, r18
    1648:	f0 e0       	ldi	r31, 0x00	; 0
    164a:	ee 0f       	add	r30, r30
    164c:	ff 1f       	adc	r31, r31
    164e:	ef 5a       	subi	r30, 0xAF	; 175
    1650:	fc 4f       	sbci	r31, 0xFC	; 252
    1652:	60 81       	ld	r22, Z
    1654:	71 81       	ldd	r23, Z+1	; 0x01
    1656:	68 17       	cp	r22, r24
    1658:	79 07       	cpc	r23, r25
    165a:	19 f4       	brne	.+6      	; 0x1662 <AMQueueImplP__0__AMSend__sendDone.isra.94+0x24>
    165c:	82 2f       	mov	r24, r18
    165e:	0c 94 bf 0a 	jmp	0x157e	; 0x157e <AMQueueImplP__0__sendDone.isra.93>
    1662:	08 95       	ret

00001664 <CraneControlP__strategyToMe>:
    1664:	9f 92       	push	r9
    1666:	af 92       	push	r10
    1668:	bf 92       	push	r11
    166a:	cf 92       	push	r12
    166c:	df 92       	push	r13
    166e:	ef 92       	push	r14
    1670:	ff 92       	push	r15
    1672:	0f 93       	push	r16
    1674:	1f 93       	push	r17
    1676:	cf 93       	push	r28
    1678:	df 93       	push	r29
    167a:	cd b7       	in	r28, 0x3d	; 61
    167c:	de b7       	in	r29, 0x3e	; 62
    167e:	2a 97       	sbiw	r28, 0x0a	; 10
    1680:	0f b6       	in	r0, 0x3f	; 63
    1682:	f8 94       	cli
    1684:	de bf       	out	0x3e, r29	; 62
    1686:	0f be       	out	0x3f, r0	; 63
    1688:	cd bf       	out	0x3d, r28	; 61
    168a:	b0 90 0a 02 	lds	r11, 0x020A
    168e:	a0 90 09 02 	lds	r10, 0x0209
    1692:	c0 90 18 02 	lds	r12, 0x0218
    1696:	cc 20       	and	r12, r12
    1698:	31 f0       	breq	.+12     	; 0x16a6 <CraneControlP__strategyToMe+0x42>
    169a:	80 91 01 02 	lds	r24, 0x0201
    169e:	8a 15       	cp	r24, r10
    16a0:	08 f0       	brcs	.+2      	; 0x16a4 <CraneControlP__strategyToMe+0x40>
    16a2:	54 c0       	rjmp	.+168    	; 0x174c <CraneControlP__strategyToMe+0xe8>
    16a4:	5e c0       	rjmp	.+188    	; 0x1762 <CraneControlP__strategyToMe+0xfe>
    16a6:	e1 e9       	ldi	r30, 0x91	; 145
    16a8:	f2 e0       	ldi	r31, 0x02	; 2
    16aa:	d1 2c       	mov	r13, r1
    16ac:	df 01       	movw	r26, r30
    16ae:	11 97       	sbiw	r26, 0x01	; 1
    16b0:	8c 91       	ld	r24, X
    16b2:	88 23       	and	r24, r24
    16b4:	49 f0       	breq	.+18     	; 0x16c8 <CraneControlP__strategyToMe+0x64>
    16b6:	80 81       	ld	r24, Z
    16b8:	a1 e0       	ldi	r26, 0x01	; 1
    16ba:	b0 e0       	ldi	r27, 0x00	; 0
    16bc:	ac 0f       	add	r26, r28
    16be:	bd 1f       	adc	r27, r29
    16c0:	ad 0d       	add	r26, r13
    16c2:	b1 1d       	adc	r27, r1
    16c4:	8c 93       	st	X, r24
    16c6:	d3 94       	inc	r13
    16c8:	39 96       	adiw	r30, 0x09	; 9
    16ca:	82 e0       	ldi	r24, 0x02	; 2
    16cc:	eb 3e       	cpi	r30, 0xEB	; 235
    16ce:	f8 07       	cpc	r31, r24
    16d0:	69 f7       	brne	.-38     	; 0x16ac <CraneControlP__strategyToMe+0x48>
    16d2:	8f ef       	ldi	r24, 0xFF	; 255
    16d4:	8d 0d       	add	r24, r13
    16d6:	8a 30       	cpi	r24, 0x0A	; 10
    16d8:	00 f7       	brcc	.-64     	; 0x169a <CraneControlP__strategyToMe+0x36>
    16da:	fe 01       	movw	r30, r28
    16dc:	31 96       	adiw	r30, 0x01	; 1
    16de:	7f 01       	movw	r14, r30
    16e0:	8f 01       	movw	r16, r30
    16e2:	89 e0       	ldi	r24, 0x09	; 9
    16e4:	98 2e       	mov	r9, r24
    16e6:	f8 01       	movw	r30, r16
    16e8:	81 91       	ld	r24, Z+
    16ea:	8f 01       	movw	r16, r30
    16ec:	0e 94 83 01 	call	0x306	; 0x306 <KnowledgeCenterP__getIndex>
    16f0:	90 e0       	ldi	r25, 0x00	; 0
    16f2:	40 91 02 02 	lds	r20, 0x0202
    16f6:	50 e0       	ldi	r21, 0x00	; 0
    16f8:	98 9e       	mul	r9, r24
    16fa:	f0 01       	movw	r30, r0
    16fc:	99 9e       	mul	r9, r25
    16fe:	f0 0d       	add	r31, r0
    1700:	11 24       	eor	r1, r1
    1702:	e0 57       	subi	r30, 0x70	; 112
    1704:	fd 4f       	sbci	r31, 0xFD	; 253
    1706:	22 81       	ldd	r18, Z+2	; 0x02
    1708:	42 1b       	sub	r20, r18
    170a:	51 09       	sbc	r21, r1
    170c:	57 ff       	sbrs	r21, 7
    170e:	03 c0       	rjmp	.+6      	; 0x1716 <CraneControlP__strategyToMe+0xb2>
    1710:	51 95       	neg	r21
    1712:	41 95       	neg	r20
    1714:	51 09       	sbc	r21, r1
    1716:	20 91 01 02 	lds	r18, 0x0201
    171a:	30 e0       	ldi	r19, 0x00	; 0
    171c:	98 9e       	mul	r9, r24
    171e:	f0 01       	movw	r30, r0
    1720:	99 9e       	mul	r9, r25
    1722:	f0 0d       	add	r31, r0
    1724:	11 24       	eor	r1, r1
    1726:	e0 57       	subi	r30, 0x70	; 112
    1728:	fd 4f       	sbci	r31, 0xFD	; 253
    172a:	83 81       	ldd	r24, Z+3	; 0x03
    172c:	28 1b       	sub	r18, r24
    172e:	31 09       	sbc	r19, r1
    1730:	37 ff       	sbrs	r19, 7
    1732:	03 c0       	rjmp	.+6      	; 0x173a <CraneControlP__strategyToMe+0xd6>
    1734:	31 95       	neg	r19
    1736:	21 95       	neg	r18
    1738:	31 09       	sbc	r19, r1
    173a:	24 0f       	add	r18, r20
    173c:	35 1f       	adc	r19, r21
    173e:	23 2b       	or	r18, r19
    1740:	c1 f0       	breq	.+48     	; 0x1772 <CraneControlP__strategyToMe+0x10e>
    1742:	80 2f       	mov	r24, r16
    1744:	8e 19       	sub	r24, r14
    1746:	8d 15       	cp	r24, r13
    1748:	70 f2       	brcs	.-100    	; 0x16e6 <CraneControlP__strategyToMe+0x82>
    174a:	a7 cf       	rjmp	.-178    	; 0x169a <CraneControlP__strategyToMe+0x36>
    174c:	a8 16       	cp	r10, r24
    174e:	58 f0       	brcs	.+22     	; 0x1766 <CraneControlP__strategyToMe+0x102>
    1750:	80 91 02 02 	lds	r24, 0x0202
    1754:	8b 15       	cp	r24, r11
    1756:	48 f0       	brcs	.+18     	; 0x176a <CraneControlP__strategyToMe+0x106>
    1758:	b8 16       	cp	r11, r24
    175a:	48 f0       	brcs	.+18     	; 0x176e <CraneControlP__strategyToMe+0x10a>
    175c:	cc 20       	and	r12, r12
    175e:	49 f0       	breq	.+18     	; 0x1772 <CraneControlP__strategyToMe+0x10e>
    1760:	33 c0       	rjmp	.+102    	; 0x17c8 <CraneControlP__strategyToMe+0x164>
    1762:	21 e0       	ldi	r18, 0x01	; 1
    1764:	07 c0       	rjmp	.+14     	; 0x1774 <CraneControlP__strategyToMe+0x110>
    1766:	22 e0       	ldi	r18, 0x02	; 2
    1768:	05 c0       	rjmp	.+10     	; 0x1774 <CraneControlP__strategyToMe+0x110>
    176a:	24 e0       	ldi	r18, 0x04	; 4
    176c:	03 c0       	rjmp	.+6      	; 0x1774 <CraneControlP__strategyToMe+0x110>
    176e:	23 e0       	ldi	r18, 0x03	; 3
    1770:	01 c0       	rjmp	.+2      	; 0x1774 <CraneControlP__strategyToMe+0x110>
    1772:	25 e0       	ldi	r18, 0x05	; 5
    1774:	80 91 1f 02 	lds	r24, 0x021F
    1778:	81 11       	cpse	r24, r1
    177a:	1f c0       	rjmp	.+62     	; 0x17ba <CraneControlP__strategyToMe+0x156>
    177c:	8f e2       	ldi	r24, 0x2F	; 47
    177e:	92 e0       	ldi	r25, 0x02	; 2
    1780:	89 2b       	or	r24, r25
    1782:	d9 f0       	breq	.+54     	; 0x17ba <CraneControlP__strategyToMe+0x156>
    1784:	8f e6       	ldi	r24, 0x6F	; 111
    1786:	80 93 2f 02 	sts	0x022F, r24
    178a:	80 91 15 02 	lds	r24, 0x0215
    178e:	80 93 30 02 	sts	0x0230, r24
    1792:	20 93 31 02 	sts	0x0231, r18
    1796:	8f ef       	ldi	r24, 0xFF	; 255
    1798:	80 93 29 02 	sts	0x0229, r24
    179c:	80 93 2a 02 	sts	0x022A, r24
    17a0:	86 e0       	ldi	r24, 0x06	; 6
    17a2:	80 93 2e 02 	sts	0x022E, r24
    17a6:	63 e2       	ldi	r22, 0x23	; 35
    17a8:	72 e0       	ldi	r23, 0x02	; 2
    17aa:	80 e0       	ldi	r24, 0x00	; 0
    17ac:	0e 94 a4 13 	call	0x2748	; 0x2748 <AMQueueImplP__0__Send__send.part.104.constprop.119>
    17b0:	81 11       	cpse	r24, r1
    17b2:	03 c0       	rjmp	.+6      	; 0x17ba <CraneControlP__strategyToMe+0x156>
    17b4:	81 e0       	ldi	r24, 0x01	; 1
    17b6:	80 93 1f 02 	sts	0x021F, r24
    17ba:	9f b7       	in	r25, 0x3f	; 63
    17bc:	f8 94       	cli
    17be:	82 b1       	in	r24, 0x02	; 2
    17c0:	22 e0       	ldi	r18, 0x02	; 2
    17c2:	82 27       	eor	r24, r18
    17c4:	82 b9       	out	0x02, r24	; 2
    17c6:	9f bf       	out	0x3f, r25	; 63
    17c8:	2a 96       	adiw	r28, 0x0a	; 10
    17ca:	0f b6       	in	r0, 0x3f	; 63
    17cc:	f8 94       	cli
    17ce:	de bf       	out	0x3e, r29	; 62
    17d0:	0f be       	out	0x3f, r0	; 63
    17d2:	cd bf       	out	0x3d, r28	; 61
    17d4:	df 91       	pop	r29
    17d6:	cf 91       	pop	r28
    17d8:	1f 91       	pop	r17
    17da:	0f 91       	pop	r16
    17dc:	ff 90       	pop	r15
    17de:	ef 90       	pop	r14
    17e0:	df 90       	pop	r13
    17e2:	cf 90       	pop	r12
    17e4:	bf 90       	pop	r11
    17e6:	af 90       	pop	r10
    17e8:	9f 90       	pop	r9
    17ea:	08 95       	ret

000017ec <SystemCommunicationP__SysLink__makeAllShipIDQuiery>:
    17ec:	90 91 1e 02 	lds	r25, 0x021E
    17f0:	91 11       	cpse	r25, r1
    17f2:	22 c0       	rjmp	.+68     	; 0x1838 <SystemCommunicationP__SysLink__makeAllShipIDQuiery+0x4c>
    17f4:	2e e2       	ldi	r18, 0x2E	; 46
    17f6:	34 e0       	ldi	r19, 0x04	; 4
    17f8:	23 2b       	or	r18, r19
    17fa:	11 f4       	brne	.+4      	; 0x1800 <SystemCommunicationP__SysLink__makeAllShipIDQuiery+0x14>
    17fc:	81 e0       	ldi	r24, 0x01	; 1
    17fe:	08 95       	ret
    1800:	96 e7       	ldi	r25, 0x76	; 118
    1802:	90 93 2e 04 	sts	0x042E, r25
    1806:	90 91 15 02 	lds	r25, 0x0215
    180a:	90 93 2f 04 	sts	0x042F, r25
    180e:	80 93 30 04 	sts	0x0430, r24
    1812:	8f ef       	ldi	r24, 0xFF	; 255
    1814:	80 93 28 04 	sts	0x0428, r24
    1818:	80 93 29 04 	sts	0x0429, r24
    181c:	87 e0       	ldi	r24, 0x07	; 7
    181e:	80 93 2d 04 	sts	0x042D, r24
    1822:	62 e2       	ldi	r22, 0x22	; 34
    1824:	74 e0       	ldi	r23, 0x04	; 4
    1826:	81 e0       	ldi	r24, 0x01	; 1
    1828:	0e 94 a4 13 	call	0x2748	; 0x2748 <AMQueueImplP__0__Send__send.part.104.constprop.119>
    182c:	81 11       	cpse	r24, r1
    182e:	e6 cf       	rjmp	.-52     	; 0x17fc <SystemCommunicationP__SysLink__makeAllShipIDQuiery+0x10>
    1830:	91 e0       	ldi	r25, 0x01	; 1
    1832:	90 93 1e 02 	sts	0x021E, r25
    1836:	08 95       	ret
    1838:	85 e0       	ldi	r24, 0x05	; 5
    183a:	08 95       	ret

0000183c <VirtualizeTimerC__0__fireTimers>:
    183c:	4f 92       	push	r4
    183e:	5f 92       	push	r5
    1840:	6f 92       	push	r6
    1842:	7f 92       	push	r7
    1844:	bf 92       	push	r11
    1846:	cf 92       	push	r12
    1848:	df 92       	push	r13
    184a:	ef 92       	push	r14
    184c:	ff 92       	push	r15
    184e:	0f 93       	push	r16
    1850:	1f 93       	push	r17
    1852:	cf 93       	push	r28
    1854:	df 93       	push	r29
    1856:	e9 e5       	ldi	r30, 0x59	; 89
    1858:	f3 e0       	ldi	r31, 0x03	; 3
    185a:	c0 e0       	ldi	r28, 0x00	; 0
    185c:	d0 e0       	ldi	r29, 0x00	; 0
    185e:	b0 84       	ldd	r11, Z+8	; 0x08
    1860:	b1 fe       	sbrs	r11, 1
    1862:	49 c0       	rjmp	.+146    	; 0x18f6 <VirtualizeTimerC__0__fireTimers+0xba>
    1864:	40 80       	ld	r4, Z
    1866:	51 80       	ldd	r5, Z+1	; 0x01
    1868:	62 80       	ldd	r6, Z+2	; 0x02
    186a:	73 80       	ldd	r7, Z+3	; 0x03
    186c:	04 81       	ldd	r16, Z+4	; 0x04
    186e:	15 81       	ldd	r17, Z+5	; 0x05
    1870:	26 81       	ldd	r18, Z+6	; 0x06
    1872:	37 81       	ldd	r19, Z+7	; 0x07
    1874:	6b 01       	movw	r12, r22
    1876:	7c 01       	movw	r14, r24
    1878:	c4 18       	sub	r12, r4
    187a:	d5 08       	sbc	r13, r5
    187c:	e6 08       	sbc	r14, r6
    187e:	f7 08       	sbc	r15, r7
    1880:	c0 16       	cp	r12, r16
    1882:	d1 06       	cpc	r13, r17
    1884:	e2 06       	cpc	r14, r18
    1886:	f3 06       	cpc	r15, r19
    1888:	b0 f1       	brcs	.+108    	; 0x18f6 <VirtualizeTimerC__0__fireTimers+0xba>
    188a:	b0 fe       	sbrs	r11, 0
    188c:	04 c0       	rjmp	.+8      	; 0x1896 <VirtualizeTimerC__0__fireTimers+0x5a>
    188e:	e8 94       	clt
    1890:	b1 f8       	bld	r11, 1
    1892:	b0 86       	std	Z+8, r11	; 0x08
    1894:	0a c0       	rjmp	.+20     	; 0x18aa <VirtualizeTimerC__0__fireTimers+0x6e>
    1896:	d3 01       	movw	r26, r6
    1898:	c2 01       	movw	r24, r4
    189a:	80 0f       	add	r24, r16
    189c:	91 1f       	adc	r25, r17
    189e:	a2 1f       	adc	r26, r18
    18a0:	b3 1f       	adc	r27, r19
    18a2:	80 83       	st	Z, r24
    18a4:	91 83       	std	Z+1, r25	; 0x01
    18a6:	a2 83       	std	Z+2, r26	; 0x02
    18a8:	b3 83       	std	Z+3, r27	; 0x03
    18aa:	c1 30       	cpi	r28, 0x01	; 1
    18ac:	31 f0       	breq	.+12     	; 0x18ba <VirtualizeTimerC__0__fireTimers+0x7e>
    18ae:	c2 30       	cpi	r28, 0x02	; 2
    18b0:	41 f5       	brne	.+80     	; 0x1902 <VirtualizeTimerC__0__fireTimers+0xc6>
    18b2:	e0 e9       	ldi	r30, 0x90	; 144
    18b4:	f2 e0       	ldi	r31, 0x02	; 2
    18b6:	80 e0       	ldi	r24, 0x00	; 0
    18b8:	08 c0       	rjmp	.+16     	; 0x18ca <VirtualizeTimerC__0__fireTimers+0x8e>
    18ba:	0e 94 32 0b 	call	0x1664	; 0x1664 <CraneControlP__strategyToMe>
    18be:	21 c0       	rjmp	.+66     	; 0x1902 <VirtualizeTimerC__0__fireTimers+0xc6>
    18c0:	39 96       	adiw	r30, 0x09	; 9
    18c2:	92 e0       	ldi	r25, 0x02	; 2
    18c4:	ea 3e       	cpi	r30, 0xEA	; 234
    18c6:	f9 07       	cpc	r31, r25
    18c8:	29 f0       	breq	.+10     	; 0x18d4 <VirtualizeTimerC__0__fireTimers+0x98>
    18ca:	90 81       	ld	r25, Z
    18cc:	99 23       	and	r25, r25
    18ce:	c1 f3       	breq	.-16     	; 0x18c0 <VirtualizeTimerC__0__fireTimers+0x84>
    18d0:	8f 5f       	subi	r24, 0xFF	; 255
    18d2:	f6 cf       	rjmp	.-20     	; 0x18c0 <VirtualizeTimerC__0__fireTimers+0x84>
    18d4:	90 91 1b 02 	lds	r25, 0x021B
    18d8:	91 11       	cpse	r25, r1
    18da:	09 c0       	rjmp	.+18     	; 0x18ee <VirtualizeTimerC__0__fireTimers+0xb2>
    18dc:	0e 94 f6 0b 	call	0x17ec	; 0x17ec <SystemCommunicationP__SysLink__makeAllShipIDQuiery>
    18e0:	81 11       	cpse	r24, r1
    18e2:	05 c0       	rjmp	.+10     	; 0x18ee <VirtualizeTimerC__0__fireTimers+0xb2>
    18e4:	81 e0       	ldi	r24, 0x01	; 1
    18e6:	80 93 1b 02 	sts	0x021B, r24
    18ea:	10 92 19 02 	sts	0x0219, r1
    18ee:	81 e0       	ldi	r24, 0x01	; 1
    18f0:	80 93 00 02 	sts	0x0200, r24
    18f4:	06 c0       	rjmp	.+12     	; 0x1902 <VirtualizeTimerC__0__fireTimers+0xc6>
    18f6:	21 96       	adiw	r28, 0x01	; 1
    18f8:	39 96       	adiw	r30, 0x09	; 9
    18fa:	c3 30       	cpi	r28, 0x03	; 3
    18fc:	d1 05       	cpc	r29, r1
    18fe:	09 f0       	breq	.+2      	; 0x1902 <VirtualizeTimerC__0__fireTimers+0xc6>
    1900:	ae cf       	rjmp	.-164    	; 0x185e <VirtualizeTimerC__0__fireTimers+0x22>
    1902:	86 e0       	ldi	r24, 0x06	; 6
    1904:	df 91       	pop	r29
    1906:	cf 91       	pop	r28
    1908:	1f 91       	pop	r17
    190a:	0f 91       	pop	r16
    190c:	ff 90       	pop	r15
    190e:	ef 90       	pop	r14
    1910:	df 90       	pop	r13
    1912:	cf 90       	pop	r12
    1914:	bf 90       	pop	r11
    1916:	7f 90       	pop	r7
    1918:	6f 90       	pop	r6
    191a:	5f 90       	pop	r5
    191c:	4f 90       	pop	r4
    191e:	0c 94 ec 00 	jmp	0x1d8	; 0x1d8 <SchedulerBasicP__TaskBasic__postTask>

00001922 <TaskletC__0__Tasklet__schedule>:
    1922:	8f b7       	in	r24, 0x3f	; 63
    1924:	f8 94       	cli
    1926:	90 91 7c 03 	lds	r25, 0x037C
    192a:	99 23       	and	r25, r25
    192c:	29 f0       	breq	.+10     	; 0x1938 <TaskletC__0__Tasklet__schedule+0x16>
    192e:	90 68       	ori	r25, 0x80	; 128
    1930:	90 93 7c 03 	sts	0x037C, r25
    1934:	8f bf       	out	0x3f, r24	; 63
    1936:	08 95       	ret
    1938:	91 e0       	ldi	r25, 0x01	; 1
    193a:	90 93 7c 03 	sts	0x037C, r25
    193e:	8f bf       	out	0x3f, r24	; 63
    1940:	0c 94 c3 05 	jmp	0xb86	; 0xb86 <TaskletC__0__doit>

00001944 <MessageBufferLayerP__0__SplitControl__start>:
    1944:	cf 93       	push	r28
    1946:	df 93       	push	r29
    1948:	1f 92       	push	r1
    194a:	cd b7       	in	r28, 0x3d	; 61
    194c:	de b7       	in	r29, 0x3e	; 62
    194e:	0e 94 9e 00 	call	0x13c	; 0x13c <TaskletC__0__Tasklet__suspend>
    1952:	80 91 88 02 	lds	r24, 0x0288
    1956:	81 11       	cpse	r24, r1
    1958:	19 c0       	rjmp	.+50     	; 0x198c <MessageBufferLayerP__0__SplitControl__start+0x48>
    195a:	80 91 52 02 	lds	r24, 0x0252
    195e:	81 11       	cpse	r24, r1
    1960:	15 c0       	rjmp	.+42     	; 0x198c <MessageBufferLayerP__0__SplitControl__start+0x48>
    1962:	80 91 21 04 	lds	r24, 0x0421
    1966:	81 30       	cpi	r24, 0x01	; 1
    1968:	29 f4       	brne	.+10     	; 0x1974 <MessageBufferLayerP__0__SplitControl__start+0x30>
    196a:	80 91 76 03 	lds	r24, 0x0376
    196e:	81 11       	cpse	r24, r1
    1970:	0d c0       	rjmp	.+26     	; 0x198c <MessageBufferLayerP__0__SplitControl__start+0x48>
    1972:	02 c0       	rjmp	.+4      	; 0x1978 <MessageBufferLayerP__0__SplitControl__start+0x34>
    1974:	85 30       	cpi	r24, 0x05	; 5
    1976:	99 f0       	breq	.+38     	; 0x199e <MessageBufferLayerP__0__SplitControl__start+0x5a>
    1978:	83 e0       	ldi	r24, 0x03	; 3
    197a:	80 93 52 02 	sts	0x0252, r24
    197e:	0e 94 91 0c 	call	0x1922	; 0x1922 <TaskletC__0__Tasklet__schedule>
    1982:	85 e0       	ldi	r24, 0x05	; 5
    1984:	80 93 88 02 	sts	0x0288, r24
    1988:	80 e0       	ldi	r24, 0x00	; 0
    198a:	01 c0       	rjmp	.+2      	; 0x198e <MessageBufferLayerP__0__SplitControl__start+0x4a>
    198c:	85 e0       	ldi	r24, 0x05	; 5
    198e:	89 83       	std	Y+1, r24	; 0x01
    1990:	0e 94 f1 09 	call	0x13e2	; 0x13e2 <TaskletC__0__Tasklet__resume>
    1994:	89 81       	ldd	r24, Y+1	; 0x01
    1996:	0f 90       	pop	r0
    1998:	df 91       	pop	r29
    199a:	cf 91       	pop	r28
    199c:	08 95       	ret
    199e:	89 e0       	ldi	r24, 0x09	; 9
    19a0:	f6 cf       	rjmp	.-20     	; 0x198e <MessageBufferLayerP__0__SplitControl__start+0x4a>

000019a2 <SchedulerBasicP__TaskBasic__runTask>:
    19a2:	2f 92       	push	r2
    19a4:	3f 92       	push	r3
    19a6:	4f 92       	push	r4
    19a8:	5f 92       	push	r5
    19aa:	6f 92       	push	r6
    19ac:	7f 92       	push	r7
    19ae:	8f 92       	push	r8
    19b0:	9f 92       	push	r9
    19b2:	af 92       	push	r10
    19b4:	bf 92       	push	r11
    19b6:	cf 92       	push	r12
    19b8:	df 92       	push	r13
    19ba:	ef 92       	push	r14
    19bc:	ff 92       	push	r15
    19be:	0f 93       	push	r16
    19c0:	1f 93       	push	r17
    19c2:	cf 93       	push	r28
    19c4:	df 93       	push	r29
    19c6:	cd b7       	in	r28, 0x3d	; 61
    19c8:	de b7       	in	r29, 0x3e	; 62
    19ca:	e5 97       	sbiw	r28, 0x35	; 53
    19cc:	0f b6       	in	r0, 0x3f	; 63
    19ce:	f8 94       	cli
    19d0:	de bf       	out	0x3e, r29	; 62
    19d2:	0f be       	out	0x3f, r0	; 63
    19d4:	cd bf       	out	0x3d, r28	; 61
    19d6:	90 e0       	ldi	r25, 0x00	; 0
    19d8:	80 31       	cpi	r24, 0x10	; 16
    19da:	91 05       	cpc	r25, r1
    19dc:	08 f0       	brcs	.+2      	; 0x19e0 <SchedulerBasicP__TaskBasic__runTask+0x3e>
    19de:	db c4       	rjmp	.+2486   	; 0x2396 <__stack+0x197>
    19e0:	fc 01       	movw	r30, r24
    19e2:	ea 59       	subi	r30, 0x9A	; 154
    19e4:	ff 4f       	sbci	r31, 0xFF	; 255
    19e6:	0c 94 77 15 	jmp	0x2aee	; 0x2aee <__tablejump2__>
    19ea:	8f b7       	in	r24, 0x3f	; 63
    19ec:	f8 94       	cli
    19ee:	92 e0       	ldi	r25, 0x02	; 2
    19f0:	90 93 21 02 	sts	0x0221, r25
    19f4:	8f bf       	out	0x3f, r24	; 63
    19f6:	80 91 0f 02 	lds	r24, 0x020F
    19fa:	81 11       	cpse	r24, r1
    19fc:	cc c4       	rjmp	.+2456   	; 0x2396 <__stack+0x197>
    19fe:	80 91 82 02 	lds	r24, 0x0282
    1a02:	90 91 83 02 	lds	r25, 0x0283
    1a06:	0e 94 02 0a 	call	0x1404	; 0x1404 <TinyosNetworkLayerC__0__TinyosSend__send>
    1a0a:	88 23       	and	r24, r24
    1a0c:	09 f4       	brne	.+2      	; 0x1a10 <SchedulerBasicP__TaskBasic__runTask+0x6e>
    1a0e:	c3 c4       	rjmp	.+2438   	; 0x2396 <__stack+0x197>
    1a10:	0e 94 b1 02 	call	0x562	; 0x562 <SimpleArbiterP__0__Resource__release.constprop.139>
    1a14:	80 91 82 02 	lds	r24, 0x0282
    1a18:	90 91 83 02 	lds	r25, 0x0283
    1a1c:	7b c0       	rjmp	.+246    	; 0x1b14 <SchedulerBasicP__TaskBasic__runTask+0x172>
    1a1e:	80 91 88 02 	lds	r24, 0x0288
    1a22:	10 92 88 02 	sts	0x0288, r1
    1a26:	85 30       	cpi	r24, 0x05	; 5
    1a28:	09 f5       	brne	.+66     	; 0x1a6c <SchedulerBasicP__TaskBasic__runTask+0xca>
    1a2a:	80 91 1e 02 	lds	r24, 0x021E
    1a2e:	81 11       	cpse	r24, r1
    1a30:	b2 c4       	rjmp	.+2404   	; 0x2396 <__stack+0x197>
    1a32:	8e e2       	ldi	r24, 0x2E	; 46
    1a34:	94 e0       	ldi	r25, 0x04	; 4
    1a36:	89 2b       	or	r24, r25
    1a38:	09 f4       	brne	.+2      	; 0x1a3c <SchedulerBasicP__TaskBasic__runTask+0x9a>
    1a3a:	ad c4       	rjmp	.+2394   	; 0x2396 <__stack+0x197>
    1a3c:	83 e7       	ldi	r24, 0x73	; 115
    1a3e:	80 93 2e 04 	sts	0x042E, r24
    1a42:	80 91 15 02 	lds	r24, 0x0215
    1a46:	80 93 2f 04 	sts	0x042F, r24
    1a4a:	8f ef       	ldi	r24, 0xFF	; 255
    1a4c:	80 93 28 04 	sts	0x0428, r24
    1a50:	80 93 29 04 	sts	0x0429, r24
    1a54:	87 e0       	ldi	r24, 0x07	; 7
    1a56:	80 93 2d 04 	sts	0x042D, r24
    1a5a:	62 e2       	ldi	r22, 0x22	; 34
    1a5c:	74 e0       	ldi	r23, 0x04	; 4
    1a5e:	81 e0       	ldi	r24, 0x01	; 1
    1a60:	0e 94 a4 13 	call	0x2748	; 0x2748 <AMQueueImplP__0__Send__send.part.104.constprop.119>
    1a64:	88 23       	and	r24, r24
    1a66:	09 f4       	brne	.+2      	; 0x1a6a <SchedulerBasicP__TaskBasic__runTask+0xc8>
    1a68:	48 c4       	rjmp	.+2192   	; 0x22fa <__stack+0xfb>
    1a6a:	95 c4       	rjmp	.+2346   	; 0x2396 <__stack+0x197>
    1a6c:	9a ef       	ldi	r25, 0xFA	; 250
    1a6e:	98 0f       	add	r25, r24
    1a70:	92 30       	cpi	r25, 0x02	; 2
    1a72:	08 f4       	brcc	.+2      	; 0x1a76 <SchedulerBasicP__TaskBasic__runTask+0xd4>
    1a74:	90 c4       	rjmp	.+2336   	; 0x2396 <__stack+0x197>
    1a76:	80 93 88 02 	sts	0x0288, r24
    1a7a:	8d c4       	rjmp	.+2330   	; 0x2396 <__stack+0x197>
    1a7c:	0e 94 9e 00 	call	0x13c	; 0x13c <TaskletC__0__Tasklet__suspend>
    1a80:	10 91 88 02 	lds	r17, 0x0288
    1a84:	11 30       	cpi	r17, 0x01	; 1
    1a86:	89 f5       	brne	.+98     	; 0x1aea <SchedulerBasicP__TaskBasic__runTask+0x148>
    1a88:	80 91 77 03 	lds	r24, 0x0377
    1a8c:	8f 5f       	subi	r24, 0xFF	; 255
    1a8e:	80 93 77 03 	sts	0x0377, r24
    1a92:	86 30       	cpi	r24, 0x06	; 6
    1a94:	50 f5       	brcc	.+84     	; 0x1aea <SchedulerBasicP__TaskBasic__runTask+0x148>
    1a96:	80 91 78 03 	lds	r24, 0x0378
    1a9a:	90 91 79 03 	lds	r25, 0x0379
    1a9e:	20 91 89 02 	lds	r18, 0x0289
    1aa2:	21 11       	cpse	r18, r1
    1aa4:	16 c0       	rjmp	.+44     	; 0x1ad2 <SchedulerBasicP__TaskBasic__runTask+0x130>
    1aa6:	20 91 76 03 	lds	r18, 0x0376
    1aaa:	21 11       	cpse	r18, r1
    1aac:	12 c0       	rjmp	.+36     	; 0x1ad2 <SchedulerBasicP__TaskBasic__runTask+0x130>
    1aae:	90 93 87 02 	sts	0x0287, r25
    1ab2:	80 93 86 02 	sts	0x0286, r24
    1ab6:	10 93 89 02 	sts	0x0289, r17
    1aba:	8b ed       	ldi	r24, 0xDB	; 219
    1abc:	91 e1       	ldi	r25, 0x11	; 17
    1abe:	0e 94 62 01 	call	0x2c4	; 0x2c4 <RandomCollisionLayerP__0__getBackoff>
    1ac2:	10 93 ed 02 	sts	0x02ED, r17
    1ac6:	10 93 76 03 	sts	0x0376, r17
    1aca:	0e 94 39 01 	call	0x272	; 0x272 <Atm128AlarmC__0__Alarm__start>
    1ace:	80 e0       	ldi	r24, 0x00	; 0
    1ad0:	01 c0       	rjmp	.+2      	; 0x1ad4 <SchedulerBasicP__TaskBasic__runTask+0x132>
    1ad2:	85 e0       	ldi	r24, 0x05	; 5
    1ad4:	80 93 91 03 	sts	0x0391, r24
    1ad8:	81 11       	cpse	r24, r1
    1ada:	02 c0       	rjmp	.+4      	; 0x1ae0 <SchedulerBasicP__TaskBasic__runTask+0x13e>
    1adc:	83 e0       	ldi	r24, 0x03	; 3
    1ade:	01 c0       	rjmp	.+2      	; 0x1ae2 <SchedulerBasicP__TaskBasic__runTask+0x140>
    1ae0:	82 e0       	ldi	r24, 0x02	; 2
    1ae2:	80 93 88 02 	sts	0x0288, r24
    1ae6:	10 e0       	ldi	r17, 0x00	; 0
    1ae8:	03 c0       	rjmp	.+6      	; 0x1af0 <SchedulerBasicP__TaskBasic__runTask+0x14e>
    1aea:	10 92 88 02 	sts	0x0288, r1
    1aee:	11 e0       	ldi	r17, 0x01	; 1
    1af0:	0e 94 f1 09 	call	0x13e2	; 0x13e2 <TaskletC__0__Tasklet__resume>
    1af4:	11 23       	and	r17, r17
    1af6:	09 f4       	brne	.+2      	; 0x1afa <SchedulerBasicP__TaskBasic__runTask+0x158>
    1af8:	4e c4       	rjmp	.+2204   	; 0x2396 <__stack+0x197>
    1afa:	00 91 78 03 	lds	r16, 0x0378
    1afe:	10 91 79 03 	lds	r17, 0x0379
    1b02:	d8 01       	movw	r26, r16
    1b04:	1a 96       	adiw	r26, 0x0a	; 10
    1b06:	8c 91       	ld	r24, X
    1b08:	8f 33       	cpi	r24, 0x3F	; 63
    1b0a:	09 f0       	breq	.+2      	; 0x1b0e <SchedulerBasicP__TaskBasic__runTask+0x16c>
    1b0c:	44 c4       	rjmp	.+2184   	; 0x2396 <__stack+0x197>
    1b0e:	0e 94 b1 02 	call	0x562	; 0x562 <SimpleArbiterP__0__Resource__release.constprop.139>
    1b12:	c8 01       	movw	r24, r16
    1b14:	0e 94 1f 0b 	call	0x163e	; 0x163e <AMQueueImplP__0__AMSend__sendDone.isra.94>
    1b18:	3e c4       	rjmp	.+2172   	; 0x2396 <__stack+0x197>
    1b1a:	77 24       	eor	r7, r7
    1b1c:	73 94       	inc	r7
    1b1e:	20 e3       	ldi	r18, 0x30	; 48
    1b20:	22 2e       	mov	r2, r18
    1b22:	25 e7       	ldi	r18, 0x75	; 117
    1b24:	32 2e       	mov	r3, r18
    1b26:	41 2c       	mov	r4, r1
    1b28:	51 2c       	mov	r5, r1
    1b2a:	fe 01       	movw	r30, r28
    1b2c:	31 96       	adiw	r30, 0x01	; 1
    1b2e:	5f 01       	movw	r10, r30
    1b30:	3c e3       	ldi	r19, 0x3C	; 60
    1b32:	c3 2e       	mov	r12, r19
    1b34:	d1 2c       	mov	r13, r1
    1b36:	e1 2c       	mov	r14, r1
    1b38:	f1 2c       	mov	r15, r1
    1b3a:	8f b7       	in	r24, 0x3f	; 63
    1b3c:	f8 94       	cli
    1b3e:	90 91 7d 03 	lds	r25, 0x037D
    1b42:	99 23       	and	r25, r25
    1b44:	09 f4       	brne	.+2      	; 0x1b48 <SchedulerBasicP__TaskBasic__runTask+0x1a6>
    1b46:	23 c3       	rjmp	.+1606   	; 0x218e <SchedulerBasicP__TaskBasic__runTask+0x7ec>
    1b48:	e0 91 8b 03 	lds	r30, 0x038B
    1b4c:	f0 e0       	ldi	r31, 0x00	; 0
    1b4e:	ee 0f       	add	r30, r30
    1b50:	ff 1f       	adc	r31, r31
    1b52:	eb 5a       	subi	r30, 0xAB	; 171
    1b54:	fd 4f       	sbci	r31, 0xFD	; 253
    1b56:	00 81       	ld	r16, Z
    1b58:	11 81       	ldd	r17, Z+1	; 0x01
    1b5a:	8f bf       	out	0x3f, r24	; 63
    1b5c:	d8 01       	movw	r26, r16
    1b5e:	2c 91       	ld	r18, X
    1b60:	8e ef       	ldi	r24, 0xFE	; 254
    1b62:	82 0f       	add	r24, r18
    1b64:	89 30       	cpi	r24, 0x09	; 9
    1b66:	08 f4       	brcc	.+2      	; 0x1b6a <SchedulerBasicP__TaskBasic__runTask+0x1c8>
    1b68:	c6 c1       	rjmp	.+908    	; 0x1ef6 <SchedulerBasicP__TaskBasic__runTask+0x554>
    1b6a:	1a 96       	adiw	r26, 0x0a	; 10
    1b6c:	8c 91       	ld	r24, X
    1b6e:	1a 97       	sbiw	r26, 0x0a	; 10
    1b70:	8f 33       	cpi	r24, 0x3F	; 63
    1b72:	09 f0       	breq	.+2      	; 0x1b76 <SchedulerBasicP__TaskBasic__runTask+0x1d4>
    1b74:	ab c1       	rjmp	.+854    	; 0x1ecc <SchedulerBasicP__TaskBasic__runTask+0x52a>
    1b76:	85 ef       	ldi	r24, 0xF5	; 245
    1b78:	82 0f       	add	r24, r18
    1b7a:	82 30       	cpi	r24, 0x02	; 2
    1b7c:	08 f4       	brcc	.+2      	; 0x1b80 <SchedulerBasicP__TaskBasic__runTask+0x1de>
    1b7e:	bb c1       	rjmp	.+886    	; 0x1ef6 <SchedulerBasicP__TaskBasic__runTask+0x554>
    1b80:	1b 96       	adiw	r26, 0x0b	; 11
    1b82:	3c 91       	ld	r19, X
    1b84:	1b 97       	sbiw	r26, 0x0b	; 11
    1b86:	17 96       	adiw	r26, 0x07	; 7
    1b88:	8c 90       	ld	r8, X
    1b8a:	17 97       	sbiw	r26, 0x07	; 7
    1b8c:	91 2c       	mov	r9, r1
    1b8e:	98 2c       	mov	r9, r8
    1b90:	88 24       	eor	r8, r8
    1b92:	16 96       	adiw	r26, 0x06	; 6
    1b94:	8c 91       	ld	r24, X
    1b96:	88 2a       	or	r8, r24
    1b98:	bf ef       	ldi	r27, 0xFF	; 255
    1b9a:	8b 16       	cp	r8, r27
    1b9c:	9b 06       	cpc	r9, r27
    1b9e:	89 f4       	brne	.+34     	; 0x1bc2 <SchedulerBasicP__TaskBasic__runTask+0x220>
    1ba0:	f8 01       	movw	r30, r16
    1ba2:	54 81       	ldd	r21, Z+4	; 0x04
    1ba4:	8f b7       	in	r24, 0x3f	; 63
    1ba6:	f8 94       	cli
    1ba8:	40 91 12 02 	lds	r20, 0x0212
    1bac:	8f bf       	out	0x3f, r24	; 63
    1bae:	81 e0       	ldi	r24, 0x01	; 1
    1bb0:	90 e0       	ldi	r25, 0x00	; 0
    1bb2:	54 17       	cp	r21, r20
    1bb4:	11 f0       	breq	.+4      	; 0x1bba <SchedulerBasicP__TaskBasic__runTask+0x218>
    1bb6:	80 e0       	ldi	r24, 0x00	; 0
    1bb8:	90 e0       	ldi	r25, 0x00	; 0
    1bba:	89 2b       	or	r24, r25
    1bbc:	09 f4       	brne	.+2      	; 0x1bc0 <SchedulerBasicP__TaskBasic__runTask+0x21e>
    1bbe:	9b c1       	rjmp	.+822    	; 0x1ef6 <SchedulerBasicP__TaskBasic__runTask+0x554>
    1bc0:	0b c0       	rjmp	.+22     	; 0x1bd8 <SchedulerBasicP__TaskBasic__runTask+0x236>
    1bc2:	2c ab       	std	Y+52, r18	; 0x34
    1bc4:	3d ab       	std	Y+53, r19	; 0x35
    1bc6:	0e 94 e4 00 	call	0x1c8	; 0x1c8 <ActiveMessageAddressC__amAddress>
    1bca:	2c a9       	ldd	r18, Y+52	; 0x34
    1bcc:	3d a9       	ldd	r19, Y+53	; 0x35
    1bce:	88 16       	cp	r8, r24
    1bd0:	99 06       	cpc	r9, r25
    1bd2:	09 f0       	breq	.+2      	; 0x1bd6 <SchedulerBasicP__TaskBasic__runTask+0x234>
    1bd4:	90 c1       	rjmp	.+800    	; 0x1ef6 <SchedulerBasicP__TaskBasic__runTask+0x554>
    1bd6:	e4 cf       	rjmp	.-56     	; 0x1ba0 <SchedulerBasicP__TaskBasic__runTask+0x1fe>
    1bd8:	2d 50       	subi	r18, 0x0D	; 13
    1bda:	36 30       	cpi	r19, 0x06	; 6
    1bdc:	21 f0       	breq	.+8      	; 0x1be6 <SchedulerBasicP__TaskBasic__runTask+0x244>
    1bde:	37 30       	cpi	r19, 0x07	; 7
    1be0:	09 f4       	brne	.+2      	; 0x1be4 <SchedulerBasicP__TaskBasic__runTask+0x242>
    1be2:	97 c0       	rjmp	.+302    	; 0x1d12 <SchedulerBasicP__TaskBasic__runTask+0x370>
    1be4:	88 c1       	rjmp	.+784    	; 0x1ef6 <SchedulerBasicP__TaskBasic__runTask+0x554>
    1be6:	25 30       	cpi	r18, 0x05	; 5
    1be8:	09 f0       	breq	.+2      	; 0x1bec <SchedulerBasicP__TaskBasic__runTask+0x24a>
    1bea:	79 c0       	rjmp	.+242    	; 0x1cde <SchedulerBasicP__TaskBasic__runTask+0x33c>
    1bec:	d8 01       	movw	r26, r16
    1bee:	1c 96       	adiw	r26, 0x0c	; 12
    1bf0:	8c 91       	ld	r24, X
    1bf2:	1c 97       	sbiw	r26, 0x0c	; 12
    1bf4:	80 37       	cpi	r24, 0x70	; 112
    1bf6:	09 f0       	breq	.+2      	; 0x1bfa <SchedulerBasicP__TaskBasic__runTask+0x258>
    1bf8:	7e c1       	rjmp	.+764    	; 0x1ef6 <SchedulerBasicP__TaskBasic__runTask+0x554>
    1bfa:	1d 96       	adiw	r26, 0x0d	; 13
    1bfc:	8c 91       	ld	r24, X
    1bfe:	1d 97       	sbiw	r26, 0x0d	; 13
    1c00:	8d 30       	cpi	r24, 0x0D	; 13
    1c02:	09 f0       	breq	.+2      	; 0x1c06 <SchedulerBasicP__TaskBasic__runTask+0x264>
    1c04:	78 c1       	rjmp	.+752    	; 0x1ef6 <SchedulerBasicP__TaskBasic__runTask+0x554>
    1c06:	1e 96       	adiw	r26, 0x0e	; 14
    1c08:	2c 91       	ld	r18, X
    1c0a:	1e 97       	sbiw	r26, 0x0e	; 14
    1c0c:	1f 96       	adiw	r26, 0x0f	; 15
    1c0e:	9c 91       	ld	r25, X
    1c10:	1f 97       	sbiw	r26, 0x0f	; 15
    1c12:	81 e0       	ldi	r24, 0x01	; 1
    1c14:	50 96       	adiw	r26, 0x10	; 16
    1c16:	3c 91       	ld	r19, X
    1c18:	31 11       	cpse	r19, r1
    1c1a:	01 c0       	rjmp	.+2      	; 0x1c1e <SchedulerBasicP__TaskBasic__runTask+0x27c>
    1c1c:	80 e0       	ldi	r24, 0x00	; 0
    1c1e:	20 93 02 02 	sts	0x0202, r18
    1c22:	90 93 01 02 	sts	0x0201, r25
    1c26:	80 93 18 02 	sts	0x0218, r24
    1c2a:	88 23       	and	r24, r24
    1c2c:	51 f0       	breq	.+20     	; 0x1c42 <SchedulerBasicP__TaskBasic__runTask+0x2a0>
    1c2e:	80 91 09 02 	lds	r24, 0x0209
    1c32:	30 91 0a 02 	lds	r19, 0x020A
    1c36:	32 13       	cpse	r19, r18
    1c38:	04 c0       	rjmp	.+8      	; 0x1c42 <SchedulerBasicP__TaskBasic__runTask+0x2a0>
    1c3a:	89 13       	cpse	r24, r25
    1c3c:	02 c0       	rjmp	.+4      	; 0x1c42 <SchedulerBasicP__TaskBasic__runTask+0x2a0>
    1c3e:	70 92 1d 02 	sts	0x021D, r7
    1c42:	e1 e5       	ldi	r30, 0x51	; 81
    1c44:	f4 e0       	ldi	r31, 0x04	; 4
    1c46:	11 92       	st	Z+, r1
    1c48:	b4 e0       	ldi	r27, 0x04	; 4
    1c4a:	eb 35       	cpi	r30, 0x5B	; 91
    1c4c:	fb 07       	cpc	r31, r27
    1c4e:	d9 f7       	brne	.-10     	; 0x1c46 <SchedulerBasicP__TaskBasic__runTask+0x2a4>
    1c50:	9f b7       	in	r25, 0x3f	; 63
    1c52:	f8 94       	cli
    1c54:	82 b1       	in	r24, 0x02	; 2
    1c56:	24 e0       	ldi	r18, 0x04	; 4
    1c58:	82 27       	eor	r24, r18
    1c5a:	82 b9       	out	0x02, r24	; 2
    1c5c:	9f bf       	out	0x3f, r25	; 63
    1c5e:	0e 94 9f 01 	call	0x33e	; 0x33e <Atm1281AlarmAsyncP__0__Counter__get>
    1c62:	60 93 62 03 	sts	0x0362, r22
    1c66:	70 93 63 03 	sts	0x0363, r23
    1c6a:	80 93 64 03 	sts	0x0364, r24
    1c6e:	90 93 65 03 	sts	0x0365, r25
    1c72:	24 ef       	ldi	r18, 0xF4	; 244
    1c74:	31 e0       	ldi	r19, 0x01	; 1
    1c76:	40 e0       	ldi	r20, 0x00	; 0
    1c78:	50 e0       	ldi	r21, 0x00	; 0
    1c7a:	20 93 66 03 	sts	0x0366, r18
    1c7e:	30 93 67 03 	sts	0x0367, r19
    1c82:	40 93 68 03 	sts	0x0368, r20
    1c86:	50 93 69 03 	sts	0x0369, r21
    1c8a:	80 91 6a 03 	lds	r24, 0x036A
    1c8e:	81 60       	ori	r24, 0x01	; 1
    1c90:	82 60       	ori	r24, 0x02	; 2
    1c92:	80 93 6a 03 	sts	0x036A, r24
    1c96:	86 e0       	ldi	r24, 0x06	; 6
    1c98:	0e 94 ec 00 	call	0x1d8	; 0x1d8 <SchedulerBasicP__TaskBasic__postTask>
    1c9c:	80 91 00 02 	lds	r24, 0x0200
    1ca0:	88 23       	and	r24, r24
    1ca2:	09 f4       	brne	.+2      	; 0x1ca6 <SchedulerBasicP__TaskBasic__runTask+0x304>
    1ca4:	28 c1       	rjmp	.+592    	; 0x1ef6 <SchedulerBasicP__TaskBasic__runTask+0x554>
    1ca6:	10 92 00 02 	sts	0x0200, r1
    1caa:	0e 94 9f 01 	call	0x33e	; 0x33e <Atm1281AlarmAsyncP__0__Counter__get>
    1cae:	60 93 6b 03 	sts	0x036B, r22
    1cb2:	70 93 6c 03 	sts	0x036C, r23
    1cb6:	80 93 6d 03 	sts	0x036D, r24
    1cba:	90 93 6e 03 	sts	0x036E, r25
    1cbe:	20 92 6f 03 	sts	0x036F, r2
    1cc2:	30 92 70 03 	sts	0x0370, r3
    1cc6:	40 92 71 03 	sts	0x0371, r4
    1cca:	50 92 72 03 	sts	0x0372, r5
    1cce:	80 91 73 03 	lds	r24, 0x0373
    1cd2:	81 60       	ori	r24, 0x01	; 1
    1cd4:	82 60       	ori	r24, 0x02	; 2
    1cd6:	80 93 73 03 	sts	0x0373, r24
    1cda:	86 e0       	ldi	r24, 0x06	; 6
    1cdc:	7f c0       	rjmp	.+254    	; 0x1ddc <SchedulerBasicP__TaskBasic__runTask+0x43a>
    1cde:	23 30       	cpi	r18, 0x03	; 3
    1ce0:	09 f0       	breq	.+2      	; 0x1ce4 <SchedulerBasicP__TaskBasic__runTask+0x342>
    1ce2:	09 c1       	rjmp	.+530    	; 0x1ef6 <SchedulerBasicP__TaskBasic__runTask+0x554>
    1ce4:	d8 01       	movw	r26, r16
    1ce6:	1c 96       	adiw	r26, 0x0c	; 12
    1ce8:	8c 91       	ld	r24, X
    1cea:	1c 97       	sbiw	r26, 0x0c	; 12
    1cec:	8f 36       	cpi	r24, 0x6F	; 111
    1cee:	09 f0       	breq	.+2      	; 0x1cf2 <SchedulerBasicP__TaskBasic__runTask+0x350>
    1cf0:	02 c1       	rjmp	.+516    	; 0x1ef6 <SchedulerBasicP__TaskBasic__runTask+0x554>
    1cf2:	1e 96       	adiw	r26, 0x0e	; 14
    1cf4:	9c 90       	ld	r9, X
    1cf6:	1e 97       	sbiw	r26, 0x0e	; 14
    1cf8:	1d 96       	adiw	r26, 0x0d	; 13
    1cfa:	8c 91       	ld	r24, X
    1cfc:	0e 94 83 01 	call	0x306	; 0x306 <KnowledgeCenterP__getIndex>
    1d00:	8a 30       	cpi	r24, 0x0A	; 10
    1d02:	08 f0       	brcs	.+2      	; 0x1d06 <SchedulerBasicP__TaskBasic__runTask+0x364>
    1d04:	f8 c0       	rjmp	.+496    	; 0x1ef6 <SchedulerBasicP__TaskBasic__runTask+0x554>
    1d06:	e8 2f       	mov	r30, r24
    1d08:	f0 e0       	ldi	r31, 0x00	; 0
    1d0a:	ef 5a       	subi	r30, 0xAF	; 175
    1d0c:	fb 4f       	sbci	r31, 0xFB	; 251
    1d0e:	90 82       	st	Z, r9
    1d10:	f2 c0       	rjmp	.+484    	; 0x1ef6 <SchedulerBasicP__TaskBasic__runTask+0x554>
    1d12:	c8 01       	movw	r24, r16
    1d14:	0c 96       	adiw	r24, 0x0c	; 12
    1d16:	f8 01       	movw	r30, r16
    1d18:	34 85       	ldd	r19, Z+12	; 0x0c
    1d1a:	3c 37       	cpi	r19, 0x7C	; 124
    1d1c:	09 f0       	breq	.+2      	; 0x1d20 <SchedulerBasicP__TaskBasic__runTask+0x37e>
    1d1e:	61 c0       	rjmp	.+194    	; 0x1de2 <SchedulerBasicP__TaskBasic__runTask+0x440>
    1d20:	85 85       	ldd	r24, Z+13	; 0x0d
    1d22:	8d 30       	cpi	r24, 0x0D	; 13
    1d24:	09 f0       	breq	.+2      	; 0x1d28 <SchedulerBasicP__TaskBasic__runTask+0x386>
    1d26:	e7 c0       	rjmp	.+462    	; 0x1ef6 <SchedulerBasicP__TaskBasic__runTask+0x554>
    1d28:	86 85       	ldd	r24, Z+14	; 0x0e
    1d2a:	88 2e       	mov	r8, r24
    1d2c:	91 2c       	mov	r9, r1
    1d2e:	9b aa       	std	Y+51, r9	; 0x33
    1d30:	8a aa       	std	Y+50, r8	; 0x32
    1d32:	80 91 15 02 	lds	r24, 0x0215
    1d36:	90 91 16 02 	lds	r25, 0x0216
    1d3a:	88 16       	cp	r8, r24
    1d3c:	99 06       	cpc	r9, r25
    1d3e:	09 f0       	breq	.+2      	; 0x1d42 <SchedulerBasicP__TaskBasic__runTask+0x3a0>
    1d40:	da c0       	rjmp	.+436    	; 0x1ef6 <SchedulerBasicP__TaskBasic__runTask+0x554>
    1d42:	97 85       	ldd	r25, Z+15	; 0x0f
    1d44:	9b 30       	cpi	r25, 0x0B	; 11
    1d46:	38 f0       	brcs	.+14     	; 0x1d56 <SchedulerBasicP__TaskBasic__runTask+0x3b4>
    1d48:	a4 e9       	ldi	r26, 0x94	; 148
    1d4a:	8a 2e       	mov	r8, r26
    1d4c:	a2 e0       	ldi	r26, 0x02	; 2
    1d4e:	9a 2e       	mov	r9, r26
    1d50:	b9 aa       	std	Y+49, r11	; 0x31
    1d52:	a8 aa       	std	Y+48, r10	; 0x30
    1d54:	19 c0       	rjmp	.+50     	; 0x1d88 <SchedulerBasicP__TaskBasic__runTask+0x3e6>
    1d56:	d8 01       	movw	r26, r16
    1d58:	50 96       	adiw	r26, 0x10	; 16
    1d5a:	f5 01       	movw	r30, r10
    1d5c:	8e 2f       	mov	r24, r30
    1d5e:	8a 19       	sub	r24, r10
    1d60:	89 17       	cp	r24, r25
    1d62:	90 f7       	brcc	.-28     	; 0x1d48 <SchedulerBasicP__TaskBasic__runTask+0x3a6>
    1d64:	8d 91       	ld	r24, X+
    1d66:	81 93       	st	Z+, r24
    1d68:	f9 cf       	rjmp	.-14     	; 0x1d5c <SchedulerBasicP__TaskBasic__runTask+0x3ba>
    1d6a:	a8 a9       	ldd	r26, Y+48	; 0x30
    1d6c:	b9 a9       	ldd	r27, Y+49	; 0x31
    1d6e:	6d 90       	ld	r6, X+
    1d70:	b9 ab       	std	Y+49, r27	; 0x31
    1d72:	a8 ab       	std	Y+48, r26	; 0x30
    1d74:	26 2d       	mov	r18, r6
    1d76:	30 e0       	ldi	r19, 0x00	; 0
    1d78:	4a a9       	ldd	r20, Y+50	; 0x32
    1d7a:	5b a9       	ldd	r21, Y+51	; 0x33
    1d7c:	24 17       	cp	r18, r20
    1d7e:	35 07       	cpc	r19, r21
    1d80:	41 f4       	brne	.+16     	; 0x1d92 <SchedulerBasicP__TaskBasic__runTask+0x3f0>
    1d82:	b9 e0       	ldi	r27, 0x09	; 9
    1d84:	8b 0e       	add	r8, r27
    1d86:	91 1c       	adc	r9, r1
    1d88:	88 a9       	ldd	r24, Y+48	; 0x30
    1d8a:	8a 19       	sub	r24, r10
    1d8c:	89 17       	cp	r24, r25
    1d8e:	68 f3       	brcs	.-38     	; 0x1d6a <SchedulerBasicP__TaskBasic__runTask+0x3c8>
    1d90:	1f c0       	rjmp	.+62     	; 0x1dd0 <SchedulerBasicP__TaskBasic__runTask+0x42e>
    1d92:	86 2d       	mov	r24, r6
    1d94:	9c ab       	std	Y+52, r25	; 0x34
    1d96:	0e 94 83 01 	call	0x306	; 0x306 <KnowledgeCenterP__getIndex>
    1d9a:	9c a9       	ldd	r25, Y+52	; 0x34
    1d9c:	8a 30       	cpi	r24, 0x0A	; 10
    1d9e:	88 f3       	brcs	.-30     	; 0x1d82 <SchedulerBasicP__TaskBasic__runTask+0x3e0>
    1da0:	0e 94 94 01 	call	0x328	; 0x328 <KnowledgeCenterP__getEmptySlot>
    1da4:	9c a9       	ldd	r25, Y+52	; 0x34
    1da6:	8a 30       	cpi	r24, 0x0A	; 10
    1da8:	60 f7       	brcc	.-40     	; 0x1d82 <SchedulerBasicP__TaskBasic__runTask+0x3e0>
    1daa:	59 e0       	ldi	r21, 0x09	; 9
    1dac:	58 9f       	mul	r21, r24
    1dae:	f0 01       	movw	r30, r0
    1db0:	11 24       	eor	r1, r1
    1db2:	e0 57       	subi	r30, 0x70	; 112
    1db4:	fd 4f       	sbci	r31, 0xFD	; 253
    1db6:	61 82       	std	Z+1, r6	; 0x01
    1db8:	70 82       	st	Z, r7
    1dba:	72 82       	std	Z+2, r7	; 0x02
    1dbc:	73 82       	std	Z+3, r7	; 0x03
    1dbe:	d4 01       	movw	r26, r8
    1dc0:	cd 92       	st	X+, r12
    1dc2:	dd 92       	st	X+, r13
    1dc4:	ed 92       	st	X+, r14
    1dc6:	fc 92       	st	X, r15
    1dc8:	13 97       	sbiw	r26, 0x03	; 3
    1dca:	70 92 1a 02 	sts	0x021A, r7
    1dce:	d9 cf       	rjmp	.-78     	; 0x1d82 <SchedulerBasicP__TaskBasic__runTask+0x3e0>
    1dd0:	80 91 1b 02 	lds	r24, 0x021B
    1dd4:	88 23       	and	r24, r24
    1dd6:	09 f4       	brne	.+2      	; 0x1dda <SchedulerBasicP__TaskBasic__runTask+0x438>
    1dd8:	8e c0       	rjmp	.+284    	; 0x1ef6 <SchedulerBasicP__TaskBasic__runTask+0x554>
    1dda:	8d e0       	ldi	r24, 0x0D	; 13
    1ddc:	0e 94 ec 00 	call	0x1d8	; 0x1d8 <SchedulerBasicP__TaskBasic__postTask>
    1de0:	8a c0       	rjmp	.+276    	; 0x1ef6 <SchedulerBasicP__TaskBasic__runTask+0x554>
    1de2:	3d 37       	cpi	r19, 0x7D	; 125
    1de4:	09 f0       	breq	.+2      	; 0x1de8 <SchedulerBasicP__TaskBasic__runTask+0x446>
    1de6:	6d c0       	rjmp	.+218    	; 0x1ec2 <SchedulerBasicP__TaskBasic__runTask+0x520>
    1de8:	f8 01       	movw	r30, r16
    1dea:	85 85       	ldd	r24, Z+13	; 0x0d
    1dec:	8d 30       	cpi	r24, 0x0D	; 13
    1dee:	09 f0       	breq	.+2      	; 0x1df2 <SchedulerBasicP__TaskBasic__runTask+0x450>
    1df0:	82 c0       	rjmp	.+260    	; 0x1ef6 <SchedulerBasicP__TaskBasic__runTask+0x554>
    1df2:	86 85       	ldd	r24, Z+14	; 0x0e
    1df4:	88 2e       	mov	r8, r24
    1df6:	91 2c       	mov	r9, r1
    1df8:	9b aa       	std	Y+51, r9	; 0x33
    1dfa:	8a aa       	std	Y+50, r8	; 0x32
    1dfc:	80 91 15 02 	lds	r24, 0x0215
    1e00:	90 91 16 02 	lds	r25, 0x0216
    1e04:	88 16       	cp	r8, r24
    1e06:	99 06       	cpc	r9, r25
    1e08:	09 f0       	breq	.+2      	; 0x1e0c <SchedulerBasicP__TaskBasic__runTask+0x46a>
    1e0a:	75 c0       	rjmp	.+234    	; 0x1ef6 <SchedulerBasicP__TaskBasic__runTask+0x554>
    1e0c:	97 85       	ldd	r25, Z+15	; 0x0f
    1e0e:	9b 30       	cpi	r25, 0x0B	; 11
    1e10:	38 f0       	brcs	.+14     	; 0x1e20 <SchedulerBasicP__TaskBasic__runTask+0x47e>
    1e12:	f4 e9       	ldi	r31, 0x94	; 148
    1e14:	8f 2e       	mov	r8, r31
    1e16:	f2 e0       	ldi	r31, 0x02	; 2
    1e18:	9f 2e       	mov	r9, r31
    1e1a:	b9 aa       	std	Y+49, r11	; 0x31
    1e1c:	a8 aa       	std	Y+48, r10	; 0x30
    1e1e:	38 c0       	rjmp	.+112    	; 0x1e90 <SchedulerBasicP__TaskBasic__runTask+0x4ee>
    1e20:	d8 01       	movw	r26, r16
    1e22:	50 96       	adiw	r26, 0x10	; 16
    1e24:	f5 01       	movw	r30, r10
    1e26:	8e 2f       	mov	r24, r30
    1e28:	8a 19       	sub	r24, r10
    1e2a:	89 17       	cp	r24, r25
    1e2c:	90 f7       	brcc	.-28     	; 0x1e12 <SchedulerBasicP__TaskBasic__runTask+0x470>
    1e2e:	8d 91       	ld	r24, X+
    1e30:	81 93       	st	Z+, r24
    1e32:	f9 cf       	rjmp	.-14     	; 0x1e26 <SchedulerBasicP__TaskBasic__runTask+0x484>
    1e34:	a8 a9       	ldd	r26, Y+48	; 0x30
    1e36:	b9 a9       	ldd	r27, Y+49	; 0x31
    1e38:	6d 90       	ld	r6, X+
    1e3a:	b9 ab       	std	Y+49, r27	; 0x31
    1e3c:	a8 ab       	std	Y+48, r26	; 0x30
    1e3e:	26 2d       	mov	r18, r6
    1e40:	30 e0       	ldi	r19, 0x00	; 0
    1e42:	4a a9       	ldd	r20, Y+50	; 0x32
    1e44:	5b a9       	ldd	r21, Y+51	; 0x33
    1e46:	24 17       	cp	r18, r20
    1e48:	35 07       	cpc	r19, r21
    1e4a:	79 f1       	breq	.+94     	; 0x1eaa <SchedulerBasicP__TaskBasic__runTask+0x508>
    1e4c:	86 2d       	mov	r24, r6
    1e4e:	9c ab       	std	Y+52, r25	; 0x34
    1e50:	0e 94 83 01 	call	0x306	; 0x306 <KnowledgeCenterP__getIndex>
    1e54:	9c a9       	ldd	r25, Y+52	; 0x34
    1e56:	8a 30       	cpi	r24, 0x0A	; 10
    1e58:	00 f1       	brcs	.+64     	; 0x1e9a <SchedulerBasicP__TaskBasic__runTask+0x4f8>
    1e5a:	0e 94 94 01 	call	0x328	; 0x328 <KnowledgeCenterP__getEmptySlot>
    1e5e:	9c a9       	ldd	r25, Y+52	; 0x34
    1e60:	8a 30       	cpi	r24, 0x0A	; 10
    1e62:	98 f4       	brcc	.+38     	; 0x1e8a <SchedulerBasicP__TaskBasic__runTask+0x4e8>
    1e64:	59 e0       	ldi	r21, 0x09	; 9
    1e66:	58 9f       	mul	r21, r24
    1e68:	f0 01       	movw	r30, r0
    1e6a:	11 24       	eor	r1, r1
    1e6c:	e0 57       	subi	r30, 0x70	; 112
    1e6e:	fd 4f       	sbci	r31, 0xFD	; 253
    1e70:	61 82       	std	Z+1, r6	; 0x01
    1e72:	70 82       	st	Z, r7
    1e74:	72 82       	std	Z+2, r7	; 0x02
    1e76:	73 82       	std	Z+3, r7	; 0x03
    1e78:	d4 01       	movw	r26, r8
    1e7a:	cd 92       	st	X+, r12
    1e7c:	dd 92       	st	X+, r13
    1e7e:	ed 92       	st	X+, r14
    1e80:	fc 92       	st	X, r15
    1e82:	13 97       	sbiw	r26, 0x03	; 3
    1e84:	70 86       	std	Z+8, r7	; 0x08
    1e86:	70 92 1a 02 	sts	0x021A, r7
    1e8a:	e9 e0       	ldi	r30, 0x09	; 9
    1e8c:	8e 0e       	add	r8, r30
    1e8e:	91 1c       	adc	r9, r1
    1e90:	88 a9       	ldd	r24, Y+48	; 0x30
    1e92:	8a 19       	sub	r24, r10
    1e94:	89 17       	cp	r24, r25
    1e96:	70 f2       	brcs	.-100    	; 0x1e34 <SchedulerBasicP__TaskBasic__runTask+0x492>
    1e98:	0b c0       	rjmp	.+22     	; 0x1eb0 <SchedulerBasicP__TaskBasic__runTask+0x50e>
    1e9a:	b9 e0       	ldi	r27, 0x09	; 9
    1e9c:	b8 9f       	mul	r27, r24
    1e9e:	f0 01       	movw	r30, r0
    1ea0:	11 24       	eor	r1, r1
    1ea2:	e0 57       	subi	r30, 0x70	; 112
    1ea4:	fd 4f       	sbci	r31, 0xFD	; 253
    1ea6:	70 86       	std	Z+8, r7	; 0x08
    1ea8:	f0 cf       	rjmp	.-32     	; 0x1e8a <SchedulerBasicP__TaskBasic__runTask+0x4e8>
    1eaa:	70 92 1d 02 	sts	0x021D, r7
    1eae:	ed cf       	rjmp	.-38     	; 0x1e8a <SchedulerBasicP__TaskBasic__runTask+0x4e8>
    1eb0:	80 91 1a 02 	lds	r24, 0x021A
    1eb4:	88 23       	and	r24, r24
    1eb6:	11 f0       	breq	.+4      	; 0x1ebc <SchedulerBasicP__TaskBasic__runTask+0x51a>
    1eb8:	8f e0       	ldi	r24, 0x0F	; 15
    1eba:	90 cf       	rjmp	.-224    	; 0x1ddc <SchedulerBasicP__TaskBasic__runTask+0x43a>
    1ebc:	0e 94 69 02 	call	0x4d2	; 0x4d2 <KnowledgeCenterP__uDone.isra.107>
    1ec0:	1a c0       	rjmp	.+52     	; 0x1ef6 <SchedulerBasicP__TaskBasic__runTask+0x554>
    1ec2:	28 30       	cpi	r18, 0x08	; 8
    1ec4:	c1 f4       	brne	.+48     	; 0x1ef6 <SchedulerBasicP__TaskBasic__runTask+0x554>
    1ec6:	0e 94 14 03 	call	0x628	; 0x628 <KnowledgeCenterP__SysLink__responseMsg>
    1eca:	15 c0       	rjmp	.+42     	; 0x1ef6 <SchedulerBasicP__TaskBasic__runTask+0x554>
    1ecc:	d8 01       	movw	r26, r16
    1ece:	17 96       	adiw	r26, 0x07	; 7
    1ed0:	8c 90       	ld	r8, X
    1ed2:	17 97       	sbiw	r26, 0x07	; 7
    1ed4:	91 2c       	mov	r9, r1
    1ed6:	98 2c       	mov	r9, r8
    1ed8:	88 24       	eor	r8, r8
    1eda:	16 96       	adiw	r26, 0x06	; 6
    1edc:	8c 91       	ld	r24, X
    1ede:	88 2a       	or	r8, r24
    1ee0:	0e 94 e4 00 	call	0x1c8	; 0x1c8 <ActiveMessageAddressC__amAddress>
    1ee4:	88 16       	cp	r8, r24
    1ee6:	99 06       	cpc	r9, r25
    1ee8:	19 f0       	breq	.+6      	; 0x1ef0 <SchedulerBasicP__TaskBasic__runTask+0x54e>
    1eea:	89 20       	and	r8, r9
    1eec:	80 94       	com	r8
    1eee:	19 f4       	brne	.+6      	; 0x1ef6 <SchedulerBasicP__TaskBasic__runTask+0x554>
    1ef0:	8f b7       	in	r24, 0x3f	; 63
    1ef2:	f8 94       	cli
    1ef4:	8f bf       	out	0x3f, r24	; 63
    1ef6:	9f b7       	in	r25, 0x3f	; 63
    1ef8:	f8 94       	cli
    1efa:	80 91 8b 03 	lds	r24, 0x038B
    1efe:	e8 2f       	mov	r30, r24
    1f00:	f0 e0       	ldi	r31, 0x00	; 0
    1f02:	ee 0f       	add	r30, r30
    1f04:	ff 1f       	adc	r31, r31
    1f06:	eb 5a       	subi	r30, 0xAB	; 171
    1f08:	fd 4f       	sbci	r31, 0xFD	; 253
    1f0a:	11 83       	std	Z+1, r17	; 0x01
    1f0c:	00 83       	st	Z, r16
    1f0e:	8f 5f       	subi	r24, 0xFF	; 255
    1f10:	83 30       	cpi	r24, 0x03	; 3
    1f12:	18 f4       	brcc	.+6      	; 0x1f1a <SchedulerBasicP__TaskBasic__runTask+0x578>
    1f14:	80 93 8b 03 	sts	0x038B, r24
    1f18:	02 c0       	rjmp	.+4      	; 0x1f1e <SchedulerBasicP__TaskBasic__runTask+0x57c>
    1f1a:	10 92 8b 03 	sts	0x038B, r1
    1f1e:	80 91 7d 03 	lds	r24, 0x037D
    1f22:	81 50       	subi	r24, 0x01	; 1
    1f24:	80 93 7d 03 	sts	0x037D, r24
    1f28:	9f bf       	out	0x3f, r25	; 63
    1f2a:	07 ce       	rjmp	.-1010   	; 0x1b3a <SchedulerBasicP__TaskBasic__runTask+0x198>
    1f2c:	ef b7       	in	r30, 0x3f	; 63
    1f2e:	f8 94       	cli
    1f30:	80 91 8b 02 	lds	r24, 0x028B
    1f34:	90 91 8c 02 	lds	r25, 0x028C
    1f38:	a0 91 8d 02 	lds	r26, 0x028D
    1f3c:	b0 91 8e 02 	lds	r27, 0x028E
    1f40:	1c 01       	movw	r2, r24
    1f42:	2d 01       	movw	r4, r26
    1f44:	9c 01       	movw	r18, r24
    1f46:	a2 01       	movw	r20, r4
    1f48:	60 e0       	ldi	r22, 0x00	; 0
    1f4a:	70 e0       	ldi	r23, 0x00	; 0
    1f4c:	80 e0       	ldi	r24, 0x00	; 0
    1f4e:	90 e0       	ldi	r25, 0x00	; 0
    1f50:	03 e0       	ldi	r16, 0x03	; 3
    1f52:	0e 94 7d 15 	call	0x2afa	; 0x2afa <__ashldi3>
    1f56:	51 01       	movw	r10, r2
    1f58:	62 01       	movw	r12, r4
    1f5a:	e1 2c       	mov	r14, r1
    1f5c:	f1 2c       	mov	r15, r1
    1f5e:	00 e0       	ldi	r16, 0x00	; 0
    1f60:	10 e0       	ldi	r17, 0x00	; 0
    1f62:	0e 94 b4 15 	call	0x2b68	; 0x2b68 <__subdi3>
    1f66:	59 01       	movw	r10, r18
    1f68:	6a 01       	movw	r12, r20
    1f6a:	7b 01       	movw	r14, r22
    1f6c:	f8 2f       	mov	r31, r24
    1f6e:	19 2f       	mov	r17, r25
    1f70:	03 e0       	ldi	r16, 0x03	; 3
    1f72:	0e 94 7d 15 	call	0x2afa	; 0x2afa <__ashldi3>
    1f76:	0f 2f       	mov	r16, r31
    1f78:	0e 94 b4 15 	call	0x2b68	; 0x2b68 <__subdi3>
    1f7c:	59 01       	movw	r10, r18
    1f7e:	6a 01       	movw	r12, r20
    1f80:	7b 01       	movw	r14, r22
    1f82:	f8 2f       	mov	r31, r24
    1f84:	19 2f       	mov	r17, r25
    1f86:	03 e0       	ldi	r16, 0x03	; 3
    1f88:	0e 94 7d 15 	call	0x2afa	; 0x2afa <__ashldi3>
    1f8c:	0f 2f       	mov	r16, r31
    1f8e:	0e 94 b4 15 	call	0x2b68	; 0x2b68 <__subdi3>
    1f92:	59 01       	movw	r10, r18
    1f94:	6a 01       	movw	r12, r20
    1f96:	7b 01       	movw	r14, r22
    1f98:	f8 2f       	mov	r31, r24
    1f9a:	19 2f       	mov	r17, r25
    1f9c:	03 e0       	ldi	r16, 0x03	; 3
    1f9e:	0e 94 7d 15 	call	0x2afa	; 0x2afa <__ashldi3>
    1fa2:	0f 2f       	mov	r16, r31
    1fa4:	0e 94 b4 15 	call	0x2b68	; 0x2b68 <__subdi3>
    1fa8:	59 01       	movw	r10, r18
    1faa:	6a 01       	movw	r12, r20
    1fac:	7b 01       	movw	r14, r22
    1fae:	f8 2f       	mov	r31, r24
    1fb0:	19 2f       	mov	r17, r25
    1fb2:	03 e0       	ldi	r16, 0x03	; 3
    1fb4:	0e 94 7d 15 	call	0x2afa	; 0x2afa <__ashldi3>
    1fb8:	0f 2f       	mov	r16, r31
    1fba:	0e 94 b4 15 	call	0x2b68	; 0x2b68 <__subdi3>
    1fbe:	01 e0       	ldi	r16, 0x01	; 1
    1fc0:	0e 94 7d 15 	call	0x2afa	; 0x2afa <__ashldi3>
    1fc4:	29 01       	movw	r4, r18
    1fc6:	3a 01       	movw	r6, r20
    1fc8:	00 e2       	ldi	r16, 0x20	; 32
    1fca:	0e 94 98 15 	call	0x2b30	; 0x2b30 <__lshrdi3>
    1fce:	49 01       	movw	r8, r18
    1fd0:	5a 01       	movw	r10, r20
    1fd2:	d3 01       	movw	r26, r6
    1fd4:	c2 01       	movw	r24, r4
    1fd6:	b6 95       	lsr	r27
    1fd8:	a7 95       	ror	r26
    1fda:	97 95       	ror	r25
    1fdc:	87 95       	ror	r24
    1fde:	88 0d       	add	r24, r8
    1fe0:	99 1d       	adc	r25, r9
    1fe2:	aa 1d       	adc	r26, r10
    1fe4:	bb 1d       	adc	r27, r11
    1fe6:	b7 ff       	sbrs	r27, 7
    1fe8:	04 c0       	rjmp	.+8      	; 0x1ff2 <SchedulerBasicP__TaskBasic__runTask+0x650>
    1fea:	bf 77       	andi	r27, 0x7F	; 127
    1fec:	01 96       	adiw	r24, 0x01	; 1
    1fee:	a1 1d       	adc	r26, r1
    1ff0:	b1 1d       	adc	r27, r1
    1ff2:	80 93 8b 02 	sts	0x028B, r24
    1ff6:	90 93 8c 02 	sts	0x028C, r25
    1ffa:	a0 93 8d 02 	sts	0x028D, r26
    1ffe:	b0 93 8e 02 	sts	0x028E, r27
    2002:	ef bf       	out	0x3f, r30	; 63
    2004:	2f b7       	in	r18, 0x3f	; 63
    2006:	f8 94       	cli
    2008:	90 93 7b 03 	sts	0x037B, r25
    200c:	80 93 7a 03 	sts	0x037A, r24
    2010:	2f bf       	out	0x3f, r18	; 63
    2012:	c1 c1       	rjmp	.+898    	; 0x2396 <__stack+0x197>
    2014:	80 91 80 02 	lds	r24, 0x0280
    2018:	81 11       	cpse	r24, r1
    201a:	41 c0       	rjmp	.+130    	; 0x209e <SchedulerBasicP__TaskBasic__runTask+0x6fc>
    201c:	40 91 84 03 	lds	r20, 0x0384
    2020:	50 91 85 03 	lds	r21, 0x0385
    2024:	60 91 86 03 	lds	r22, 0x0386
    2028:	70 91 87 03 	lds	r23, 0x0387
    202c:	ef b7       	in	r30, 0x3f	; 63
    202e:	f8 94       	cli
    2030:	80 91 8d 03 	lds	r24, 0x038D
    2034:	90 91 8e 03 	lds	r25, 0x038E
    2038:	a0 91 8f 03 	lds	r26, 0x038F
    203c:	b0 91 90 03 	lds	r27, 0x0390
    2040:	00 91 5b 02 	lds	r16, 0x025B
    2044:	10 91 5c 02 	lds	r17, 0x025C
    2048:	20 91 5d 02 	lds	r18, 0x025D
    204c:	30 91 5e 02 	lds	r19, 0x025E
    2050:	80 0f       	add	r24, r16
    2052:	91 1f       	adc	r25, r17
    2054:	a2 1f       	adc	r26, r18
    2056:	b3 1f       	adc	r27, r19
    2058:	ef bf       	out	0x3f, r30	; 63
    205a:	40 93 84 03 	sts	0x0384, r20
    205e:	50 93 85 03 	sts	0x0385, r21
    2062:	60 93 86 03 	sts	0x0386, r22
    2066:	70 93 87 03 	sts	0x0387, r23
    206a:	10 92 80 02 	sts	0x0280, r1
    206e:	2f b7       	in	r18, 0x3f	; 63
    2070:	f8 94       	cli
    2072:	31 e0       	ldi	r19, 0x01	; 1
    2074:	30 93 8a 02 	sts	0x028A, r19
    2078:	80 93 5b 02 	sts	0x025B, r24
    207c:	90 93 5c 02 	sts	0x025C, r25
    2080:	a0 93 5d 02 	sts	0x025D, r26
    2084:	b0 93 5e 02 	sts	0x025E, r27
    2088:	40 93 8d 03 	sts	0x038D, r20
    208c:	50 93 8e 03 	sts	0x038E, r21
    2090:	60 93 8f 03 	sts	0x038F, r22
    2094:	70 93 90 03 	sts	0x0390, r23
    2098:	2f bf       	out	0x3f, r18	; 63
    209a:	0e 94 c4 01 	call	0x388	; 0x388 <Atm1281AlarmAsyncP__0__setInterrupt>
    209e:	0e 94 9f 01 	call	0x33e	; 0x33e <Atm1281AlarmAsyncP__0__Counter__get>
    20a2:	3c c0       	rjmp	.+120    	; 0x211c <SchedulerBasicP__TaskBasic__runTask+0x77a>
    20a4:	0e 94 9f 01 	call	0x33e	; 0x33e <Atm1281AlarmAsyncP__0__Counter__get>
    20a8:	2f b7       	in	r18, 0x3f	; 63
    20aa:	f8 94       	cli
    20ac:	10 92 8a 02 	sts	0x028A, r1
    20b0:	2f bf       	out	0x3f, r18	; 63
    20b2:	e9 e5       	ldi	r30, 0x59	; 89
    20b4:	f3 e0       	ldi	r31, 0x03	; 3
    20b6:	20 e0       	ldi	r18, 0x00	; 0
    20b8:	44 24       	eor	r4, r4
    20ba:	4a 94       	dec	r4
    20bc:	54 2c       	mov	r5, r4
    20be:	64 2c       	mov	r6, r4
    20c0:	5f e7       	ldi	r21, 0x7F	; 127
    20c2:	75 2e       	mov	r7, r21
    20c4:	40 85       	ldd	r20, Z+8	; 0x08
    20c6:	41 ff       	sbrs	r20, 1
    20c8:	1c c0       	rjmp	.+56     	; 0x2102 <SchedulerBasicP__TaskBasic__runTask+0x760>
    20ca:	c0 80       	ld	r12, Z
    20cc:	d1 80       	ldd	r13, Z+1	; 0x01
    20ce:	e2 80       	ldd	r14, Z+2	; 0x02
    20d0:	f3 80       	ldd	r15, Z+3	; 0x03
    20d2:	4b 01       	movw	r8, r22
    20d4:	5c 01       	movw	r10, r24
    20d6:	8c 18       	sub	r8, r12
    20d8:	9d 08       	sbc	r9, r13
    20da:	ae 08       	sbc	r10, r14
    20dc:	bf 08       	sbc	r11, r15
    20de:	75 01       	movw	r14, r10
    20e0:	64 01       	movw	r12, r8
    20e2:	84 80       	ldd	r8, Z+4	; 0x04
    20e4:	95 80       	ldd	r9, Z+5	; 0x05
    20e6:	a6 80       	ldd	r10, Z+6	; 0x06
    20e8:	b7 80       	ldd	r11, Z+7	; 0x07
    20ea:	8c 18       	sub	r8, r12
    20ec:	9d 08       	sbc	r9, r13
    20ee:	ae 08       	sbc	r10, r14
    20f0:	bf 08       	sbc	r11, r15
    20f2:	84 14       	cp	r8, r4
    20f4:	95 04       	cpc	r9, r5
    20f6:	a6 04       	cpc	r10, r6
    20f8:	b7 04       	cpc	r11, r7
    20fa:	1c f4       	brge	.+6      	; 0x2102 <SchedulerBasicP__TaskBasic__runTask+0x760>
    20fc:	24 01       	movw	r4, r8
    20fe:	35 01       	movw	r6, r10
    2100:	21 e0       	ldi	r18, 0x01	; 1
    2102:	39 96       	adiw	r30, 0x09	; 9
    2104:	33 e0       	ldi	r19, 0x03	; 3
    2106:	e4 37       	cpi	r30, 0x74	; 116
    2108:	f3 07       	cpc	r31, r19
    210a:	e1 f6       	brne	.-72     	; 0x20c4 <SchedulerBasicP__TaskBasic__runTask+0x722>
    210c:	22 23       	and	r18, r18
    210e:	09 f4       	brne	.+2      	; 0x2112 <SchedulerBasicP__TaskBasic__runTask+0x770>
    2110:	42 c1       	rjmp	.+644    	; 0x2396 <__stack+0x197>
    2112:	14 14       	cp	r1, r4
    2114:	15 04       	cpc	r1, r5
    2116:	16 04       	cpc	r1, r6
    2118:	17 04       	cpc	r1, r7
    211a:	1c f0       	brlt	.+6      	; 0x2122 <SchedulerBasicP__TaskBasic__runTask+0x780>
    211c:	0e 94 1e 0c 	call	0x183c	; 0x183c <VirtualizeTimerC__0__fireTimers>
    2120:	3a c1       	rjmp	.+628    	; 0x2396 <__stack+0x197>
    2122:	40 92 84 03 	sts	0x0384, r4
    2126:	50 92 85 03 	sts	0x0385, r5
    212a:	60 92 86 03 	sts	0x0386, r6
    212e:	70 92 87 03 	sts	0x0387, r7
    2132:	41 e0       	ldi	r20, 0x01	; 1
    2134:	40 93 80 02 	sts	0x0280, r20
    2138:	4f b7       	in	r20, 0x3f	; 63
    213a:	f8 94       	cli
    213c:	51 e0       	ldi	r21, 0x01	; 1
    213e:	50 93 8a 02 	sts	0x028A, r21
    2142:	60 93 5b 02 	sts	0x025B, r22
    2146:	70 93 5c 02 	sts	0x025C, r23
    214a:	80 93 5d 02 	sts	0x025D, r24
    214e:	90 93 5e 02 	sts	0x025E, r25
    2152:	40 92 8d 03 	sts	0x038D, r4
    2156:	50 92 8e 03 	sts	0x038E, r5
    215a:	60 92 8f 03 	sts	0x038F, r6
    215e:	70 92 90 03 	sts	0x0390, r7
    2162:	4f bf       	out	0x3f, r20	; 63
    2164:	0e 94 c4 01 	call	0x388	; 0x388 <Atm1281AlarmAsyncP__0__setInterrupt>
    2168:	16 c1       	rjmp	.+556    	; 0x2396 <__stack+0x197>
    216a:	8f b7       	in	r24, 0x3f	; 63
    216c:	f8 94       	cli
    216e:	10 92 75 03 	sts	0x0375, r1
    2172:	10 92 74 03 	sts	0x0374, r1
    2176:	10 92 20 04 	sts	0x0420, r1
    217a:	10 92 1f 04 	sts	0x041F, r1
    217e:	10 92 54 02 	sts	0x0254, r1
    2182:	10 92 53 02 	sts	0x0253, r1
    2186:	10 92 4e 03 	sts	0x034E, r1
    218a:	10 92 4d 03 	sts	0x034D, r1
    218e:	8f bf       	out	0x3f, r24	; 63
    2190:	02 c1       	rjmp	.+516    	; 0x2396 <__stack+0x197>
    2192:	1f b7       	in	r17, 0x3f	; 63
    2194:	f8 94       	cli
    2196:	82 e0       	ldi	r24, 0x02	; 2
    2198:	80 93 20 02 	sts	0x0220, r24
    219c:	0e 94 47 04 	call	0x88e	; 0x88e <Atm128SpiP__startSpi>
    21a0:	1f bf       	out	0x3f, r17	; 63
    21a2:	80 91 0c 02 	lds	r24, 0x020C
    21a6:	81 11       	cpse	r24, r1
    21a8:	f6 c0       	rjmp	.+492    	; 0x2396 <__stack+0x197>
    21aa:	80 91 21 04 	lds	r24, 0x0421
    21ae:	81 11       	cpse	r24, r1
    21b0:	3a c0       	rjmp	.+116    	; 0x2226 <__stack+0x27>
    21b2:	8e ef       	ldi	r24, 0xFE	; 254
    21b4:	91 e0       	ldi	r25, 0x01	; 1
    21b6:	01 97       	sbiw	r24, 0x01	; 1
    21b8:	01 96       	adiw	r24, 0x01	; 1
    21ba:	01 97       	sbiw	r24, 0x01	; 1
    21bc:	e1 f7       	brne	.-8      	; 0x21b6 <SchedulerBasicP__TaskBasic__runTask+0x814>
    21be:	16 98       	cbi	0x02, 6	; 2
    21c0:	0e 94 9a 00 	call	0x134	; 0x134 <HplAtm128GeneralIOPinP__15__IO__clr>
    21c4:	86 e0       	ldi	r24, 0x06	; 6
    21c6:	90 e0       	ldi	r25, 0x00	; 0
    21c8:	01 97       	sbiw	r24, 0x01	; 1
    21ca:	01 96       	adiw	r24, 0x01	; 1
    21cc:	01 97       	sbiw	r24, 0x01	; 1
    21ce:	e1 f7       	brne	.-8      	; 0x21c8 <SchedulerBasicP__TaskBasic__runTask+0x826>
    21d0:	16 9a       	sbi	0x02, 6	; 2
    21d2:	60 e0       	ldi	r22, 0x00	; 0
    21d4:	83 e0       	ldi	r24, 0x03	; 3
    21d6:	0e 94 2f 04 	call	0x85e	; 0x85e <RF230DriverLayerP__writeRegister>
    21da:	68 e0       	ldi	r22, 0x08	; 8
    21dc:	82 e0       	ldi	r24, 0x02	; 2
    21de:	0e 94 2f 04 	call	0x85e	; 0x85e <RF230DriverLayerP__writeRegister>
    21e2:	8e ef       	ldi	r24, 0xFE	; 254
    21e4:	91 e0       	ldi	r25, 0x01	; 1
    21e6:	01 97       	sbiw	r24, 0x01	; 1
    21e8:	01 96       	adiw	r24, 0x01	; 1
    21ea:	01 97       	sbiw	r24, 0x01	; 1
    21ec:	e1 f7       	brne	.-8      	; 0x21e6 <SchedulerBasicP__TaskBasic__runTask+0x844>
    21ee:	6d e4       	ldi	r22, 0x4D	; 77
    21f0:	8e e0       	ldi	r24, 0x0E	; 14
    21f2:	0e 94 2f 04 	call	0x85e	; 0x85e <RF230DriverLayerP__writeRegister>
    21f6:	67 ec       	ldi	r22, 0xC7	; 199
    21f8:	89 e0       	ldi	r24, 0x09	; 9
    21fa:	0e 94 2f 04 	call	0x85e	; 0x85e <RF230DriverLayerP__writeRegister>
    21fe:	60 e8       	ldi	r22, 0x80	; 128
    2200:	85 e0       	ldi	r24, 0x05	; 5
    2202:	0e 94 2f 04 	call	0x85e	; 0x85e <RF230DriverLayerP__writeRegister>
    2206:	10 92 1d 03 	sts	0x031D, r1
    220a:	84 e1       	ldi	r24, 0x14	; 20
    220c:	80 93 81 02 	sts	0x0281, r24
    2210:	64 e7       	ldi	r22, 0x74	; 116
    2212:	88 e0       	ldi	r24, 0x08	; 8
    2214:	0e 94 2f 04 	call	0x85e	; 0x85e <RF230DriverLayerP__writeRegister>
    2218:	2f 9a       	sbi	0x05, 7	; 5
    221a:	81 e0       	ldi	r24, 0x01	; 1
    221c:	80 93 21 04 	sts	0x0421, r24
    2220:	0e 94 e1 02 	call	0x5c2	; 0x5c2 <RF230DriverLayerP__SpiResource__release>
    2224:	b8 c0       	rjmp	.+368    	; 0x2396 <__stack+0x197>
    2226:	0e 94 91 0c 	call	0x1922	; 0x1922 <TaskletC__0__Tasklet__schedule>
    222a:	b5 c0       	rjmp	.+362    	; 0x2396 <__stack+0x197>
    222c:	80 91 8c 03 	lds	r24, 0x038C
    2230:	88 23       	and	r24, r24
    2232:	09 f4       	brne	.+2      	; 0x2236 <__stack+0x37>
    2234:	b0 c0       	rjmp	.+352    	; 0x2396 <__stack+0x197>
    2236:	01 e5       	ldi	r16, 0x51	; 81
    2238:	13 e0       	ldi	r17, 0x03	; 3
    223a:	f1 2c       	mov	r15, r1
    223c:	ee 24       	eor	r14, r14
    223e:	e3 94       	inc	r14
    2240:	90 91 8c 03 	lds	r25, 0x038C
    2244:	8e 2d       	mov	r24, r14
    2246:	89 23       	and	r24, r25
    2248:	71 f0       	breq	.+28     	; 0x2266 <__stack+0x67>
    224a:	d8 01       	movw	r26, r16
    224c:	6d 91       	ld	r22, X+
    224e:	7c 91       	ld	r23, X
    2250:	11 97       	sbiw	r26, 0x01	; 1
    2252:	1d 92       	st	X+, r1
    2254:	1c 92       	st	X, r1
    2256:	8e 2d       	mov	r24, r14
    2258:	80 95       	com	r24
    225a:	89 23       	and	r24, r25
    225c:	80 93 8c 03 	sts	0x038C, r24
    2260:	8f 2d       	mov	r24, r15
    2262:	0e 94 58 02 	call	0x4b0	; 0x4b0 <AMQueueImplP__0__Send__sendDone.isra.41>
    2266:	ee 0c       	add	r14, r14
    2268:	f3 94       	inc	r15
    226a:	0e 5f       	subi	r16, 0xFE	; 254
    226c:	1f 4f       	sbci	r17, 0xFF	; 255
    226e:	b8 e0       	ldi	r27, 0x08	; 8
    2270:	fb 12       	cpse	r15, r27
    2272:	e6 cf       	rjmp	.-52     	; 0x2240 <__stack+0x41>
    2274:	90 c0       	rjmp	.+288    	; 0x2396 <__stack+0x197>
    2276:	80 91 0b 02 	lds	r24, 0x020B
    227a:	e8 2f       	mov	r30, r24
    227c:	f0 e0       	ldi	r31, 0x00	; 0
    227e:	ee 0f       	add	r30, r30
    2280:	ff 1f       	adc	r31, r31
    2282:	ef 5a       	subi	r30, 0xAF	; 175
    2284:	fc 4f       	sbci	r31, 0xFC	; 252
    2286:	60 81       	ld	r22, Z
    2288:	71 81       	ldd	r23, Z+1	; 0x01
    228a:	0e 94 bf 0a 	call	0x157e	; 0x157e <AMQueueImplP__0__sendDone.isra.93>
    228e:	83 c0       	rjmp	.+262    	; 0x2396 <__stack+0x197>
    2290:	89 e7       	ldi	r24, 0x79	; 121
    2292:	8d 87       	std	Y+13, r24	; 0x0d
    2294:	8d e0       	ldi	r24, 0x0D	; 13
    2296:	8e 87       	std	Y+14, r24	; 0x0e
    2298:	80 91 15 02 	lds	r24, 0x0215
    229c:	8f 87       	std	Y+15, r24	; 0x0f
    229e:	84 ec       	ldi	r24, 0xC4	; 196
    22a0:	89 8b       	std	Y+17, r24	; 0x11
    22a2:	81 e0       	ldi	r24, 0x01	; 1
    22a4:	88 8b       	std	Y+16, r24	; 0x10
    22a6:	8e e3       	ldi	r24, 0x3E	; 62
    22a8:	8a 8b       	std	Y+18, r24	; 0x12
    22aa:	85 e7       	ldi	r24, 0x75	; 117
    22ac:	8b 8b       	std	Y+19, r24	; 0x13
    22ae:	1c 8a       	std	Y+20, r1	; 0x14
    22b0:	ce 01       	movw	r24, r28
    22b2:	0d 96       	adiw	r24, 0x0d	; 13
    22b4:	0e 94 14 03 	call	0x628	; 0x628 <KnowledgeCenterP__SysLink__responseMsg>
    22b8:	6e c0       	rjmp	.+220    	; 0x2396 <__stack+0x197>
    22ba:	80 91 1e 02 	lds	r24, 0x021E
    22be:	81 11       	cpse	r24, r1
    22c0:	26 c0       	rjmp	.+76     	; 0x230e <__stack+0x10f>
    22c2:	8e e2       	ldi	r24, 0x2E	; 46
    22c4:	94 e0       	ldi	r25, 0x04	; 4
    22c6:	89 2b       	or	r24, r25
    22c8:	11 f1       	breq	.+68     	; 0x230e <__stack+0x10f>
    22ca:	87 e7       	ldi	r24, 0x77	; 119
    22cc:	80 93 2e 04 	sts	0x042E, r24
    22d0:	80 91 15 02 	lds	r24, 0x0215
    22d4:	80 93 2f 04 	sts	0x042F, r24
    22d8:	10 92 30 04 	sts	0x0430, r1
    22dc:	8f ef       	ldi	r24, 0xFF	; 255
    22de:	80 93 28 04 	sts	0x0428, r24
    22e2:	80 93 29 04 	sts	0x0429, r24
    22e6:	87 e0       	ldi	r24, 0x07	; 7
    22e8:	80 93 2d 04 	sts	0x042D, r24
    22ec:	62 e2       	ldi	r22, 0x22	; 34
    22ee:	74 e0       	ldi	r23, 0x04	; 4
    22f0:	81 e0       	ldi	r24, 0x01	; 1
    22f2:	0e 94 a4 13 	call	0x2748	; 0x2748 <AMQueueImplP__0__Send__send.part.104.constprop.119>
    22f6:	81 11       	cpse	r24, r1
    22f8:	0a c0       	rjmp	.+20     	; 0x230e <__stack+0x10f>
    22fa:	81 e0       	ldi	r24, 0x01	; 1
    22fc:	80 93 1e 02 	sts	0x021E, r24
    2300:	4a c0       	rjmp	.+148    	; 0x2396 <__stack+0x197>
    2302:	87 e3       	ldi	r24, 0x37	; 55
    2304:	0e 94 f6 0b 	call	0x17ec	; 0x17ec <SystemCommunicationP__SysLink__makeAllShipIDQuiery>
    2308:	88 23       	and	r24, r24
    230a:	09 f4       	brne	.+2      	; 0x230e <__stack+0x10f>
    230c:	44 c0       	rjmp	.+136    	; 0x2396 <__stack+0x197>
    230e:	0e 94 69 02 	call	0x4d2	; 0x4d2 <KnowledgeCenterP__uDone.isra.107>
    2312:	41 c0       	rjmp	.+130    	; 0x2396 <__stack+0x197>
    2314:	02 e9       	ldi	r16, 0x92	; 146
    2316:	12 e0       	ldi	r17, 0x02	; 2
    2318:	9e e2       	ldi	r25, 0x2E	; 46
    231a:	e9 2e       	mov	r14, r25
    231c:	94 e0       	ldi	r25, 0x04	; 4
    231e:	f9 2e       	mov	r15, r25
    2320:	25 e7       	ldi	r18, 0x75	; 117
    2322:	b2 2e       	mov	r11, r18
    2324:	dd 24       	eor	r13, r13
    2326:	da 94       	dec	r13
    2328:	37 e0       	ldi	r19, 0x07	; 7
    232a:	a3 2e       	mov	r10, r19
    232c:	f8 01       	movw	r30, r16
    232e:	32 97       	sbiw	r30, 0x02	; 2
    2330:	80 81       	ld	r24, Z
    2332:	88 23       	and	r24, r24
    2334:	31 f1       	breq	.+76     	; 0x2382 <__stack+0x183>
    2336:	f8 01       	movw	r30, r16
    2338:	c0 80       	ld	r12, Z
    233a:	f1 e0       	ldi	r31, 0x01	; 1
    233c:	cf 12       	cpse	r12, r31
    233e:	21 c0       	rjmp	.+66     	; 0x2382 <__stack+0x183>
    2340:	f8 01       	movw	r30, r16
    2342:	31 97       	sbiw	r30, 0x01	; 1
    2344:	80 81       	ld	r24, Z
    2346:	90 91 1e 02 	lds	r25, 0x021E
    234a:	91 11       	cpse	r25, r1
    234c:	21 c0       	rjmp	.+66     	; 0x2390 <__stack+0x191>
    234e:	e1 14       	cp	r14, r1
    2350:	f1 04       	cpc	r15, r1
    2352:	f1 f0       	breq	.+60     	; 0x2390 <__stack+0x191>
    2354:	b0 92 2e 04 	sts	0x042E, r11
    2358:	90 91 15 02 	lds	r25, 0x0215
    235c:	90 93 2f 04 	sts	0x042F, r25
    2360:	80 93 30 04 	sts	0x0430, r24
    2364:	d0 92 28 04 	sts	0x0428, r13
    2368:	d0 92 29 04 	sts	0x0429, r13
    236c:	a0 92 2d 04 	sts	0x042D, r10
    2370:	62 e2       	ldi	r22, 0x22	; 34
    2372:	74 e0       	ldi	r23, 0x04	; 4
    2374:	81 e0       	ldi	r24, 0x01	; 1
    2376:	0e 94 a4 13 	call	0x2748	; 0x2748 <AMQueueImplP__0__Send__send.part.104.constprop.119>
    237a:	81 11       	cpse	r24, r1
    237c:	09 c0       	rjmp	.+18     	; 0x2390 <__stack+0x191>
    237e:	c0 92 1e 02 	sts	0x021E, r12
    2382:	07 5f       	subi	r16, 0xF7	; 247
    2384:	1f 4f       	sbci	r17, 0xFF	; 255
    2386:	22 e0       	ldi	r18, 0x02	; 2
    2388:	0c 3e       	cpi	r16, 0xEC	; 236
    238a:	12 07       	cpc	r17, r18
    238c:	79 f6       	brne	.-98     	; 0x232c <__stack+0x12d>
    238e:	bf cf       	rjmp	.-130    	; 0x230e <__stack+0x10f>
    2390:	0e 94 69 02 	call	0x4d2	; 0x4d2 <KnowledgeCenterP__uDone.isra.107>
    2394:	f6 cf       	rjmp	.-20     	; 0x2382 <__stack+0x183>
    2396:	e5 96       	adiw	r28, 0x35	; 53
    2398:	0f b6       	in	r0, 0x3f	; 63
    239a:	f8 94       	cli
    239c:	de bf       	out	0x3e, r29	; 62
    239e:	0f be       	out	0x3f, r0	; 63
    23a0:	cd bf       	out	0x3d, r28	; 61
    23a2:	df 91       	pop	r29
    23a4:	cf 91       	pop	r28
    23a6:	1f 91       	pop	r17
    23a8:	0f 91       	pop	r16
    23aa:	ff 90       	pop	r15
    23ac:	ef 90       	pop	r14
    23ae:	df 90       	pop	r13
    23b0:	cf 90       	pop	r12
    23b2:	bf 90       	pop	r11
    23b4:	af 90       	pop	r10
    23b6:	9f 90       	pop	r9
    23b8:	8f 90       	pop	r8
    23ba:	7f 90       	pop	r7
    23bc:	6f 90       	pop	r6
    23be:	5f 90       	pop	r5
    23c0:	4f 90       	pop	r4
    23c2:	3f 90       	pop	r3
    23c4:	2f 90       	pop	r2
    23c6:	08 95       	ret

000023c8 <__nesc_atomic_start>:
    23c8:	8f b7       	in	r24, 0x3f	; 63
    23ca:	f8 94       	cli
    23cc:	08 95       	ret

000023ce <__nesc_atomic_end>:
    23ce:	8f bf       	out	0x3f, r24	; 63
    23d0:	08 95       	ret

000023d2 <__vector_13>:
    23d2:	1f 92       	push	r1
    23d4:	0f 92       	push	r0
    23d6:	0f b6       	in	r0, 0x3f	; 63
    23d8:	0f 92       	push	r0
    23da:	11 24       	eor	r1, r1
    23dc:	0b b6       	in	r0, 0x3b	; 59
    23de:	0f 92       	push	r0
    23e0:	2f 93       	push	r18
    23e2:	3f 93       	push	r19
    23e4:	4f 93       	push	r20
    23e6:	5f 93       	push	r21
    23e8:	6f 93       	push	r22
    23ea:	7f 93       	push	r23
    23ec:	8f 93       	push	r24
    23ee:	9f 93       	push	r25
    23f0:	af 93       	push	r26
    23f2:	bf 93       	push	r27
    23f4:	ef 93       	push	r30
    23f6:	ff 93       	push	r31
    23f8:	0e 94 db 00 	call	0x1b6	; 0x1b6 <HplAtm1281Timer2AsyncP__stabiliseTimer2>
    23fc:	20 91 b3 00 	lds	r18, 0x00B3
    2400:	30 e0       	ldi	r19, 0x00	; 0
    2402:	2f 5f       	subi	r18, 0xFF	; 255
    2404:	3f 4f       	sbci	r19, 0xFF	; 255
    2406:	80 91 67 02 	lds	r24, 0x0267
    240a:	90 91 68 02 	lds	r25, 0x0268
    240e:	a0 91 69 02 	lds	r26, 0x0269
    2412:	b0 91 6a 02 	lds	r27, 0x026A
    2416:	82 0f       	add	r24, r18
    2418:	93 1f       	adc	r25, r19
    241a:	a1 1d       	adc	r26, r1
    241c:	b1 1d       	adc	r27, r1
    241e:	80 93 67 02 	sts	0x0267, r24
    2422:	90 93 68 02 	sts	0x0268, r25
    2426:	a0 93 69 02 	sts	0x0269, r26
    242a:	b0 93 6a 02 	sts	0x026A, r27
    242e:	78 94       	sei
    2430:	0e 94 c4 01 	call	0x388	; 0x388 <Atm1281AlarmAsyncP__0__setInterrupt>
    2434:	ff 91       	pop	r31
    2436:	ef 91       	pop	r30
    2438:	bf 91       	pop	r27
    243a:	af 91       	pop	r26
    243c:	9f 91       	pop	r25
    243e:	8f 91       	pop	r24
    2440:	7f 91       	pop	r23
    2442:	6f 91       	pop	r22
    2444:	5f 91       	pop	r21
    2446:	4f 91       	pop	r20
    2448:	3f 91       	pop	r19
    244a:	2f 91       	pop	r18
    244c:	0f 90       	pop	r0
    244e:	0b be       	out	0x3b, r0	; 59
    2450:	0f 90       	pop	r0
    2452:	0f be       	out	0x3f, r0	; 63
    2454:	0f 90       	pop	r0
    2456:	1f 90       	pop	r1
    2458:	18 95       	reti

0000245a <__vector_15>:
    245a:	1f 92       	push	r1
    245c:	0f 92       	push	r0
    245e:	0f b6       	in	r0, 0x3f	; 63
    2460:	0f 92       	push	r0
    2462:	11 24       	eor	r1, r1
    2464:	0b b6       	in	r0, 0x3b	; 59
    2466:	0f 92       	push	r0
    2468:	2f 93       	push	r18
    246a:	3f 93       	push	r19
    246c:	4f 93       	push	r20
    246e:	5f 93       	push	r21
    2470:	6f 93       	push	r22
    2472:	7f 93       	push	r23
    2474:	8f 93       	push	r24
    2476:	9f 93       	push	r25
    2478:	af 93       	push	r26
    247a:	bf 93       	push	r27
    247c:	ef 93       	push	r30
    247e:	ff 93       	push	r31
    2480:	0e 94 db 00 	call	0x1b6	; 0x1b6 <HplAtm1281Timer2AsyncP__stabiliseTimer2>
    2484:	ff 91       	pop	r31
    2486:	ef 91       	pop	r30
    2488:	bf 91       	pop	r27
    248a:	af 91       	pop	r26
    248c:	9f 91       	pop	r25
    248e:	8f 91       	pop	r24
    2490:	7f 91       	pop	r23
    2492:	6f 91       	pop	r22
    2494:	5f 91       	pop	r21
    2496:	4f 91       	pop	r20
    2498:	3f 91       	pop	r19
    249a:	2f 91       	pop	r18
    249c:	0f 90       	pop	r0
    249e:	0b be       	out	0x3b, r0	; 59
    24a0:	0f 90       	pop	r0
    24a2:	0f be       	out	0x3f, r0	; 63
    24a4:	0f 90       	pop	r0
    24a6:	1f 90       	pop	r1
    24a8:	18 95       	reti

000024aa <__vector_24>:
    24aa:	1f 92       	push	r1
    24ac:	0f 92       	push	r0
    24ae:	0f b6       	in	r0, 0x3f	; 63
    24b0:	0f 92       	push	r0
    24b2:	11 24       	eor	r1, r1
    24b4:	0b b6       	in	r0, 0x3b	; 59
    24b6:	0f 92       	push	r0
    24b8:	2f 93       	push	r18
    24ba:	3f 93       	push	r19
    24bc:	4f 93       	push	r20
    24be:	5f 93       	push	r21
    24c0:	6f 93       	push	r22
    24c2:	7f 93       	push	r23
    24c4:	8f 93       	push	r24
    24c6:	9f 93       	push	r25
    24c8:	af 93       	push	r26
    24ca:	bf 93       	push	r27
    24cc:	ef 93       	push	r30
    24ce:	ff 93       	push	r31
    24d0:	2e b5       	in	r18, 0x2e	; 46
    24d2:	80 91 74 03 	lds	r24, 0x0374
    24d6:	90 91 75 03 	lds	r25, 0x0375
    24da:	00 97       	sbiw	r24, 0x00	; 0
    24dc:	39 f0       	breq	.+14     	; 0x24ec <__vector_24+0x42>
    24de:	e0 91 4d 03 	lds	r30, 0x034D
    24e2:	f0 91 4e 03 	lds	r31, 0x034E
    24e6:	e8 0f       	add	r30, r24
    24e8:	f9 1f       	adc	r31, r25
    24ea:	20 83       	st	Z, r18
    24ec:	80 91 4d 03 	lds	r24, 0x034D
    24f0:	90 91 4e 03 	lds	r25, 0x034E
    24f4:	01 96       	adiw	r24, 0x01	; 1
    24f6:	90 93 4e 03 	sts	0x034E, r25
    24fa:	80 93 4d 03 	sts	0x034D, r24
    24fe:	8c b5       	in	r24, 0x2c	; 44
    2500:	8f 77       	andi	r24, 0x7F	; 127
    2502:	8c bd       	out	0x2c, r24	; 44
    2504:	80 91 4d 03 	lds	r24, 0x034D
    2508:	90 91 4e 03 	lds	r25, 0x034E
    250c:	60 91 53 02 	lds	r22, 0x0253
    2510:	70 91 54 02 	lds	r23, 0x0254
    2514:	86 17       	cp	r24, r22
    2516:	97 07       	cpc	r25, r23
    2518:	08 f0       	brcs	.+2      	; 0x251c <__vector_24+0x72>
    251a:	3f c0       	rjmp	.+126    	; 0x259a <__vector_24+0xf0>
    251c:	20 91 1f 04 	lds	r18, 0x041F
    2520:	30 91 20 04 	lds	r19, 0x0420
    2524:	e0 91 74 03 	lds	r30, 0x0374
    2528:	f0 91 75 03 	lds	r31, 0x0375
    252c:	ac 01       	movw	r20, r24
    252e:	46 5f       	subi	r20, 0xF6	; 246
    2530:	5f 4f       	sbci	r21, 0xFF	; 255
    2532:	64 17       	cp	r22, r20
    2534:	75 07       	cpc	r23, r21
    2536:	08 f4       	brcc	.+2      	; 0x253a <__vector_24+0x90>
    2538:	ab 01       	movw	r20, r22
    253a:	41 50       	subi	r20, 0x01	; 1
    253c:	51 09       	sbc	r21, r1
    253e:	84 17       	cp	r24, r20
    2540:	95 07       	cpc	r25, r21
    2542:	c8 f4       	brcc	.+50     	; 0x2576 <__vector_24+0xcc>
    2544:	21 15       	cp	r18, r1
    2546:	31 05       	cpc	r19, r1
    2548:	49 f0       	breq	.+18     	; 0x255c <__vector_24+0xb2>
    254a:	d9 01       	movw	r26, r18
    254c:	a8 0f       	add	r26, r24
    254e:	b9 1f       	adc	r27, r25
    2550:	6c 91       	ld	r22, X
    2552:	6e bd       	out	0x2e, r22	; 46
    2554:	0d b4       	in	r0, 0x2d	; 45
    2556:	07 fe       	sbrs	r0, 7
    2558:	fd cf       	rjmp	.-6      	; 0x2554 <__vector_24+0xaa>
    255a:	04 c0       	rjmp	.+8      	; 0x2564 <__vector_24+0xba>
    255c:	1e bc       	out	0x2e, r1	; 46
    255e:	0d b4       	in	r0, 0x2d	; 45
    2560:	07 fe       	sbrs	r0, 7
    2562:	fd cf       	rjmp	.-6      	; 0x255e <__vector_24+0xb4>
    2564:	6e b5       	in	r22, 0x2e	; 46
    2566:	30 97       	sbiw	r30, 0x00	; 0
    2568:	21 f0       	breq	.+8      	; 0x2572 <__vector_24+0xc8>
    256a:	df 01       	movw	r26, r30
    256c:	a8 0f       	add	r26, r24
    256e:	b9 1f       	adc	r27, r25
    2570:	6c 93       	st	X, r22
    2572:	01 96       	adiw	r24, 0x01	; 1
    2574:	e4 cf       	rjmp	.-56     	; 0x253e <__vector_24+0x94>
    2576:	4c b5       	in	r20, 0x2c	; 44
    2578:	40 68       	ori	r20, 0x80	; 128
    257a:	4c bd       	out	0x2c, r20	; 44
    257c:	21 15       	cp	r18, r1
    257e:	31 05       	cpc	r19, r1
    2580:	31 f0       	breq	.+12     	; 0x258e <__vector_24+0xe4>
    2582:	f9 01       	movw	r30, r18
    2584:	e8 0f       	add	r30, r24
    2586:	f9 1f       	adc	r31, r25
    2588:	20 81       	ld	r18, Z
    258a:	2e bd       	out	0x2e, r18	; 46
    258c:	01 c0       	rjmp	.+2      	; 0x2590 <__vector_24+0xe6>
    258e:	1e bc       	out	0x2e, r1	; 46
    2590:	90 93 4e 03 	sts	0x034E, r25
    2594:	80 93 4d 03 	sts	0x034D, r24
    2598:	11 c0       	rjmp	.+34     	; 0x25bc <__vector_24+0x112>
    259a:	10 92 75 03 	sts	0x0375, r1
    259e:	10 92 74 03 	sts	0x0374, r1
    25a2:	10 92 20 04 	sts	0x0420, r1
    25a6:	10 92 1f 04 	sts	0x041F, r1
    25aa:	10 92 54 02 	sts	0x0254, r1
    25ae:	10 92 53 02 	sts	0x0253, r1
    25b2:	10 92 4e 03 	sts	0x034E, r1
    25b6:	10 92 4d 03 	sts	0x034D, r1
    25ba:	8e b5       	in	r24, 0x2e	; 46
    25bc:	ff 91       	pop	r31
    25be:	ef 91       	pop	r30
    25c0:	bf 91       	pop	r27
    25c2:	af 91       	pop	r26
    25c4:	9f 91       	pop	r25
    25c6:	8f 91       	pop	r24
    25c8:	7f 91       	pop	r23
    25ca:	6f 91       	pop	r22
    25cc:	5f 91       	pop	r21
    25ce:	4f 91       	pop	r20
    25d0:	3f 91       	pop	r19
    25d2:	2f 91       	pop	r18
    25d4:	0f 90       	pop	r0
    25d6:	0b be       	out	0x3b, r0	; 59
    25d8:	0f 90       	pop	r0
    25da:	0f be       	out	0x3f, r0	; 63
    25dc:	0f 90       	pop	r0
    25de:	1f 90       	pop	r1
    25e0:	18 95       	reti

000025e2 <__vector_17>:
    25e2:	78 94       	sei
    25e4:	1f 92       	push	r1
    25e6:	0f 92       	push	r0
    25e8:	0f b6       	in	r0, 0x3f	; 63
    25ea:	0f 92       	push	r0
    25ec:	11 24       	eor	r1, r1
    25ee:	0b b6       	in	r0, 0x3b	; 59
    25f0:	0f 92       	push	r0
    25f2:	2f 93       	push	r18
    25f4:	3f 93       	push	r19
    25f6:	4f 93       	push	r20
    25f8:	5f 93       	push	r21
    25fa:	6f 93       	push	r22
    25fc:	7f 93       	push	r23
    25fe:	8f 93       	push	r24
    2600:	9f 93       	push	r25
    2602:	af 93       	push	r26
    2604:	bf 93       	push	r27
    2606:	ef 93       	push	r30
    2608:	ff 93       	push	r31
    260a:	80 91 6f 00 	lds	r24, 0x006F
    260e:	8d 7f       	andi	r24, 0xFD	; 253
    2610:	80 93 6f 00 	sts	0x006F, r24
    2614:	78 94       	sei
    2616:	8f b7       	in	r24, 0x3f	; 63
    2618:	f8 94       	cli
    261a:	90 91 76 03 	lds	r25, 0x0376
    261e:	91 30       	cpi	r25, 0x01	; 1
    2620:	19 f4       	brne	.+6      	; 0x2628 <__vector_17+0x46>
    2622:	92 e0       	ldi	r25, 0x02	; 2
    2624:	90 93 76 03 	sts	0x0376, r25
    2628:	8f bf       	out	0x3f, r24	; 63
    262a:	0e 94 91 0c 	call	0x1922	; 0x1922 <TaskletC__0__Tasklet__schedule>
    262e:	ff 91       	pop	r31
    2630:	ef 91       	pop	r30
    2632:	bf 91       	pop	r27
    2634:	af 91       	pop	r26
    2636:	9f 91       	pop	r25
    2638:	8f 91       	pop	r24
    263a:	7f 91       	pop	r23
    263c:	6f 91       	pop	r22
    263e:	5f 91       	pop	r21
    2640:	4f 91       	pop	r20
    2642:	3f 91       	pop	r19
    2644:	2f 91       	pop	r18
    2646:	0f 90       	pop	r0
    2648:	0b be       	out	0x3b, r0	; 59
    264a:	0f 90       	pop	r0
    264c:	0f be       	out	0x3f, r0	; 63
    264e:	0f 90       	pop	r0
    2650:	1f 90       	pop	r1
    2652:	18 95       	reti

00002654 <__vector_18>:
    2654:	78 94       	sei
    2656:	1f 92       	push	r1
    2658:	0f 92       	push	r0
    265a:	0f b6       	in	r0, 0x3f	; 63
    265c:	0f 92       	push	r0
    265e:	11 24       	eor	r1, r1
    2660:	0f 90       	pop	r0
    2662:	0f be       	out	0x3f, r0	; 63
    2664:	0f 90       	pop	r0
    2666:	1f 90       	pop	r1
    2668:	18 95       	reti

0000266a <__vector_19>:
    266a:	78 94       	sei
    266c:	1f 92       	push	r1
    266e:	0f 92       	push	r0
    2670:	0f b6       	in	r0, 0x3f	; 63
    2672:	0f 92       	push	r0
    2674:	11 24       	eor	r1, r1
    2676:	0f 90       	pop	r0
    2678:	0f be       	out	0x3f, r0	; 63
    267a:	0f 90       	pop	r0
    267c:	1f 90       	pop	r1
    267e:	18 95       	reti

00002680 <__vector_16>:
    2680:	78 94       	sei
    2682:	1f 92       	push	r1
    2684:	0f 92       	push	r0
    2686:	0f b6       	in	r0, 0x3f	; 63
    2688:	0f 92       	push	r0
    268a:	11 24       	eor	r1, r1
    268c:	0b b6       	in	r0, 0x3b	; 59
    268e:	0f 92       	push	r0
    2690:	2f 93       	push	r18
    2692:	3f 93       	push	r19
    2694:	4f 93       	push	r20
    2696:	5f 93       	push	r21
    2698:	6f 93       	push	r22
    269a:	7f 93       	push	r23
    269c:	8f 93       	push	r24
    269e:	9f 93       	push	r25
    26a0:	af 93       	push	r26
    26a2:	bf 93       	push	r27
    26a4:	ef 93       	push	r30
    26a6:	ff 93       	push	r31
    26a8:	e6 e8       	ldi	r30, 0x86	; 134
    26aa:	f0 e0       	ldi	r31, 0x00	; 0
    26ac:	80 81       	ld	r24, Z
    26ae:	91 81       	ldd	r25, Z+1	; 0x01
    26b0:	80 81       	ld	r24, Z
    26b2:	91 81       	ldd	r25, Z+1	; 0x01
    26b4:	2f b7       	in	r18, 0x3f	; 63
    26b6:	f8 94       	cli
    26b8:	90 93 eb 02 	sts	0x02EB, r25
    26bc:	80 93 ea 02 	sts	0x02EA, r24
    26c0:	81 e0       	ldi	r24, 0x01	; 1
    26c2:	80 93 83 03 	sts	0x0383, r24
    26c6:	2f bf       	out	0x3f, r18	; 63
    26c8:	0e 94 91 0c 	call	0x1922	; 0x1922 <TaskletC__0__Tasklet__schedule>
    26cc:	ff 91       	pop	r31
    26ce:	ef 91       	pop	r30
    26d0:	bf 91       	pop	r27
    26d2:	af 91       	pop	r26
    26d4:	9f 91       	pop	r25
    26d6:	8f 91       	pop	r24
    26d8:	7f 91       	pop	r23
    26da:	6f 91       	pop	r22
    26dc:	5f 91       	pop	r21
    26de:	4f 91       	pop	r20
    26e0:	3f 91       	pop	r19
    26e2:	2f 91       	pop	r18
    26e4:	0f 90       	pop	r0
    26e6:	0b be       	out	0x3b, r0	; 59
    26e8:	0f 90       	pop	r0
    26ea:	0f be       	out	0x3f, r0	; 63
    26ec:	0f 90       	pop	r0
    26ee:	1f 90       	pop	r1
    26f0:	18 95       	reti

000026f2 <__vector_20>:
    26f2:	78 94       	sei
    26f4:	1f 92       	push	r1
    26f6:	0f 92       	push	r0
    26f8:	0f b6       	in	r0, 0x3f	; 63
    26fa:	0f 92       	push	r0
    26fc:	11 24       	eor	r1, r1
    26fe:	2f 93       	push	r18
    2700:	8f 93       	push	r24
    2702:	9f 93       	push	r25
    2704:	af 93       	push	r26
    2706:	bf 93       	push	r27
    2708:	2f b7       	in	r18, 0x3f	; 63
    270a:	f8 94       	cli
    270c:	80 91 55 03 	lds	r24, 0x0355
    2710:	90 91 56 03 	lds	r25, 0x0356
    2714:	a0 91 57 03 	lds	r26, 0x0357
    2718:	b0 91 58 03 	lds	r27, 0x0358
    271c:	01 96       	adiw	r24, 0x01	; 1
    271e:	a1 1d       	adc	r26, r1
    2720:	b1 1d       	adc	r27, r1
    2722:	80 93 55 03 	sts	0x0355, r24
    2726:	90 93 56 03 	sts	0x0356, r25
    272a:	a0 93 57 03 	sts	0x0357, r26
    272e:	b0 93 58 03 	sts	0x0358, r27
    2732:	2f bf       	out	0x3f, r18	; 63
    2734:	bf 91       	pop	r27
    2736:	af 91       	pop	r26
    2738:	9f 91       	pop	r25
    273a:	8f 91       	pop	r24
    273c:	2f 91       	pop	r18
    273e:	0f 90       	pop	r0
    2740:	0f be       	out	0x3f, r0	; 63
    2742:	0f 90       	pop	r0
    2744:	1f 90       	pop	r1
    2746:	18 95       	reti

00002748 <AMQueueImplP__0__Send__send.part.104.constprop.119>:
    2748:	cf 93       	push	r28
    274a:	df 93       	push	r29
    274c:	fb 01       	movw	r30, r22
    274e:	c8 2f       	mov	r28, r24
    2750:	d0 e0       	ldi	r29, 0x00	; 0
    2752:	cc 0f       	add	r28, r28
    2754:	dd 1f       	adc	r29, r29
    2756:	cf 5a       	subi	r28, 0xAF	; 175
    2758:	dc 4f       	sbci	r29, 0xFC	; 252
    275a:	28 81       	ld	r18, Y
    275c:	39 81       	ldd	r19, Y+1	; 0x01
    275e:	23 2b       	or	r18, r19
    2760:	f1 f4       	brne	.+60     	; 0x279e <AMQueueImplP__0__Send__send.part.104.constprop.119+0x56>
    2762:	79 83       	std	Y+1, r23	; 0x01
    2764:	68 83       	st	Y, r22
    2766:	90 e1       	ldi	r25, 0x10	; 16
    2768:	90 83       	st	Z, r25
    276a:	90 91 0b 02 	lds	r25, 0x020B
    276e:	92 30       	cpi	r25, 0x02	; 2
    2770:	c0 f0       	brcs	.+48     	; 0x27a2 <AMQueueImplP__0__Send__send.part.104.constprop.119+0x5a>
    2772:	93 85       	ldd	r25, Z+11	; 0x0b
    2774:	67 81       	ldd	r22, Z+7	; 0x07
    2776:	70 e0       	ldi	r23, 0x00	; 0
    2778:	76 2f       	mov	r23, r22
    277a:	66 27       	eor	r22, r22
    277c:	26 81       	ldd	r18, Z+6	; 0x06
    277e:	62 2b       	or	r22, r18
    2780:	80 93 0b 02 	sts	0x020B, r24
    2784:	23 e0       	ldi	r18, 0x03	; 3
    2786:	af 01       	movw	r20, r30
    2788:	89 2f       	mov	r24, r25
    278a:	0e 94 31 0a 	call	0x1462	; 0x1462 <ActiveMessageLayerP__0__AMSend__send>
    278e:	88 23       	and	r24, r24
    2790:	41 f0       	breq	.+16     	; 0x27a2 <AMQueueImplP__0__Send__send.part.104.constprop.119+0x5a>
    2792:	92 e0       	ldi	r25, 0x02	; 2
    2794:	90 93 0b 02 	sts	0x020B, r25
    2798:	19 82       	std	Y+1, r1	; 0x01
    279a:	18 82       	st	Y, r1
    279c:	03 c0       	rjmp	.+6      	; 0x27a4 <AMQueueImplP__0__Send__send.part.104.constprop.119+0x5c>
    279e:	85 e0       	ldi	r24, 0x05	; 5
    27a0:	01 c0       	rjmp	.+2      	; 0x27a4 <AMQueueImplP__0__Send__send.part.104.constprop.119+0x5c>
    27a2:	80 e0       	ldi	r24, 0x00	; 0
    27a4:	df 91       	pop	r29
    27a6:	cf 91       	pop	r28
    27a8:	08 95       	ret

000027aa <main>:
    27aa:	1f b7       	in	r17, 0x3f	; 63
    27ac:	f8 94       	cli
    27ae:	14 be       	out	0x34, r1	; 52
    27b0:	88 e1       	ldi	r24, 0x18	; 24
    27b2:	0f b6       	in	r0, 0x3f	; 63
    27b4:	f8 94       	cli
    27b6:	80 93 60 00 	sts	0x0060, r24
    27ba:	10 92 60 00 	sts	0x0060, r1
    27be:	0f be       	out	0x3f, r0	; 63
    27c0:	40 e1       	ldi	r20, 0x10	; 16
    27c2:	50 e0       	ldi	r21, 0x00	; 0
    27c4:	6f ef       	ldi	r22, 0xFF	; 255
    27c6:	70 e0       	ldi	r23, 0x00	; 0
    27c8:	8b e6       	ldi	r24, 0x6B	; 107
    27ca:	92 e0       	ldi	r25, 0x02	; 2
    27cc:	0e 94 bd 15 	call	0x2b7a	; 0x2b7a <memset>
    27d0:	8f ef       	ldi	r24, 0xFF	; 255
    27d2:	80 93 88 03 	sts	0x0388, r24
    27d6:	80 93 5c 04 	sts	0x045C, r24
    27da:	56 98       	cbi	0x0a, 6	; 10
    27dc:	5e 98       	cbi	0x0b, 6	; 11
    27de:	54 98       	cbi	0x0a, 4	; 10
    27e0:	5c 98       	cbi	0x0b, 4	; 11
    27e2:	80 91 6f 00 	lds	r24, 0x006F
    27e6:	8f 7d       	andi	r24, 0xDF	; 223
    27e8:	80 93 6f 00 	sts	0x006F, r24
    27ec:	20 9a       	sbi	0x04, 0	; 4
    27ee:	0e 94 9c 00 	call	0x138	; 0x138 <HplAtm128GeneralIOPinP__8__IO__set>
    27f2:	27 9a       	sbi	0x04, 7	; 4
    27f4:	0e 94 9a 00 	call	0x134	; 0x134 <HplAtm128GeneralIOPinP__15__IO__clr>
    27f8:	0e 9a       	sbi	0x01, 6	; 1
    27fa:	16 9a       	sbi	0x02, 6	; 2
    27fc:	8e ee       	ldi	r24, 0xEE	; 238
    27fe:	92 e0       	ldi	r25, 0x02	; 2
    2800:	90 93 60 02 	sts	0x0260, r25
    2804:	80 93 5f 02 	sts	0x025F, r24
    2808:	10 92 8f 02 	sts	0x028F, r1
    280c:	8a e5       	ldi	r24, 0x5A	; 90
    280e:	80 93 85 02 	sts	0x0285, r24
    2812:	81 e0       	ldi	r24, 0x01	; 1
    2814:	80 93 81 00 	sts	0x0081, r24
    2818:	80 e2       	ldi	r24, 0x20	; 32
    281a:	80 93 b6 00 	sts	0x00B6, r24
    281e:	83 e0       	ldi	r24, 0x03	; 3
    2820:	80 93 b1 00 	sts	0x00B1, r24
    2824:	80 91 84 00 	lds	r24, 0x0084
    2828:	90 91 85 00 	lds	r25, 0x0085
    282c:	4a e7       	ldi	r20, 0x7A	; 122
    282e:	20 91 84 00 	lds	r18, 0x0084
    2832:	30 91 85 00 	lds	r19, 0x0085
    2836:	28 17       	cp	r18, r24
    2838:	39 07       	cpc	r19, r25
    283a:	08 f4       	brcc	.+2      	; 0x283e <main+0x94>
    283c:	41 50       	subi	r20, 0x01	; 1
    283e:	44 23       	and	r20, r20
    2840:	11 f0       	breq	.+4      	; 0x2846 <main+0x9c>
    2842:	c9 01       	movw	r24, r18
    2844:	f4 cf       	rjmp	.-24     	; 0x282e <main+0x84>
    2846:	80 91 b2 00 	lds	r24, 0x00B2
    284a:	90 91 b2 00 	lds	r25, 0x00B2
    284e:	98 17       	cp	r25, r24
    2850:	e1 f3       	breq	.-8      	; 0x284a <main+0xa0>
    2852:	20 91 84 00 	lds	r18, 0x0084
    2856:	30 91 85 00 	lds	r19, 0x0085
    285a:	80 91 b2 00 	lds	r24, 0x00B2
    285e:	90 91 b2 00 	lds	r25, 0x00B2
    2862:	98 17       	cp	r25, r24
    2864:	e1 f3       	breq	.-8      	; 0x285e <main+0xb4>
    2866:	80 91 84 00 	lds	r24, 0x0084
    286a:	90 91 85 00 	lds	r25, 0x0085
    286e:	40 96       	adiw	r24, 0x10	; 16
    2870:	82 1b       	sub	r24, r18
    2872:	93 0b       	sbc	r25, r19
    2874:	65 e0       	ldi	r22, 0x05	; 5
    2876:	96 95       	lsr	r25
    2878:	87 95       	ror	r24
    287a:	6a 95       	dec	r22
    287c:	e1 f7       	brne	.-8      	; 0x2876 <main+0xcc>
    287e:	90 93 8a 03 	sts	0x038A, r25
    2882:	80 93 89 03 	sts	0x0389, r24
    2886:	10 92 b1 00 	sts	0x00B1, r1
    288a:	10 92 81 00 	sts	0x0081, r1
    288e:	10 92 b6 00 	sts	0x00B6, r1
    2892:	10 92 b2 00 	sts	0x00B2, r1
    2896:	10 92 85 00 	sts	0x0085, r1
    289a:	10 92 84 00 	sts	0x0084, r1
    289e:	8f ef       	ldi	r24, 0xFF	; 255
    28a0:	87 bb       	out	0x17, r24	; 23
    28a2:	86 bb       	out	0x16, r24	; 22
    28a4:	80 91 b6 00 	lds	r24, 0x00B6
    28a8:	85 71       	andi	r24, 0x15	; 21
    28aa:	e1 f7       	brne	.-8      	; 0x28a4 <main+0xfa>
    28ac:	0a 9a       	sbi	0x01, 2	; 1
    28ae:	09 9a       	sbi	0x01, 1	; 1
    28b0:	08 9a       	sbi	0x01, 0	; 1
    28b2:	12 9a       	sbi	0x02, 2	; 2
    28b4:	11 9a       	sbi	0x02, 1	; 2
    28b6:	10 9a       	sbi	0x02, 0	; 2
    28b8:	18 b8       	out	0x08, r1	; 8
    28ba:	8f ef       	ldi	r24, 0xFF	; 255
    28bc:	87 b9       	out	0x07, r24	; 7
    28be:	0c 98       	cbi	0x01, 4	; 1
    28c0:	14 98       	cbi	0x02, 4	; 2
    28c2:	10 92 85 00 	sts	0x0085, r1
    28c6:	10 92 84 00 	sts	0x0084, r1
    28ca:	80 91 6f 00 	lds	r24, 0x006F
    28ce:	81 60       	ori	r24, 0x01	; 1
    28d0:	80 93 6f 00 	sts	0x006F, r24
    28d4:	80 91 81 00 	lds	r24, 0x0081
    28d8:	88 7f       	andi	r24, 0xF8	; 248
    28da:	82 60       	ori	r24, 0x02	; 2
    28dc:	80 93 81 00 	sts	0x0081, r24
    28e0:	0e 94 c7 00 	call	0x18e	; 0x18e <SchedulerBasicP__popTask>
    28e4:	8f 3f       	cpi	r24, 0xFF	; 255
    28e6:	19 f0       	breq	.+6      	; 0x28ee <main+0x144>
    28e8:	0e 94 d1 0c 	call	0x19a2	; 0x19a2 <SchedulerBasicP__TaskBasic__runTask>
    28ec:	f9 cf       	rjmp	.-14     	; 0x28e0 <main+0x136>
    28ee:	80 93 ec 02 	sts	0x02EC, r24
    28f2:	0e 94 7e 02 	call	0x4fc	; 0x4fc <SimpleArbiterP__1__Resource__request.constprop.130>
    28f6:	80 91 b6 00 	lds	r24, 0x00B6
    28fa:	80 62       	ori	r24, 0x20	; 32
    28fc:	80 93 b6 00 	sts	0x00B6, r24
    2900:	80 91 b6 00 	lds	r24, 0x00B6
    2904:	81 fd       	sbrc	r24, 1
    2906:	fc cf       	rjmp	.-8      	; 0x2900 <main+0x156>
    2908:	82 e0       	ldi	r24, 0x02	; 2
    290a:	80 93 b0 00 	sts	0x00B0, r24
    290e:	80 91 b6 00 	lds	r24, 0x00B6
    2912:	80 fd       	sbrc	r24, 0
    2914:	fc cf       	rjmp	.-8      	; 0x290e <main+0x164>
    2916:	83 e0       	ldi	r24, 0x03	; 3
    2918:	80 93 b1 00 	sts	0x00B1, r24
    291c:	80 91 b6 00 	lds	r24, 0x00B6
    2920:	83 fd       	sbrc	r24, 3
    2922:	fc cf       	rjmp	.-8      	; 0x291c <main+0x172>
    2924:	86 ee       	ldi	r24, 0xE6	; 230
    2926:	80 93 b3 00 	sts	0x00B3, r24
    292a:	80 91 70 00 	lds	r24, 0x0070
    292e:	82 60       	ori	r24, 0x02	; 2
    2930:	80 93 70 00 	sts	0x0070, r24
    2934:	0e 94 c4 01 	call	0x388	; 0x388 <Atm1281AlarmAsyncP__0__setInterrupt>
    2938:	20 91 15 02 	lds	r18, 0x0215
    293c:	30 91 16 02 	lds	r19, 0x0216
    2940:	c9 01       	movw	r24, r18
    2942:	01 96       	adiw	r24, 0x01	; 1
    2944:	a0 e0       	ldi	r26, 0x00	; 0
    2946:	b0 e0       	ldi	r27, 0x00	; 0
    2948:	80 93 8b 02 	sts	0x028B, r24
    294c:	90 93 8c 02 	sts	0x028C, r25
    2950:	a0 93 8d 02 	sts	0x028D, r26
    2954:	b0 93 8e 02 	sts	0x028E, r27
    2958:	82 e9       	ldi	r24, 0x92	; 146
    295a:	93 e0       	ldi	r25, 0x03	; 3
    295c:	90 93 56 02 	sts	0x0256, r25
    2960:	80 93 55 02 	sts	0x0255, r24
    2964:	81 ec       	ldi	r24, 0xC1	; 193
    2966:	93 e0       	ldi	r25, 0x03	; 3
    2968:	90 93 58 02 	sts	0x0258, r25
    296c:	80 93 57 02 	sts	0x0257, r24
    2970:	80 ef       	ldi	r24, 0xF0	; 240
    2972:	93 e0       	ldi	r25, 0x03	; 3
    2974:	90 93 5a 02 	sts	0x025A, r25
    2978:	80 93 59 02 	sts	0x0259, r24
    297c:	22 95       	swap	r18
    297e:	20 7f       	andi	r18, 0xF0	; 240
    2980:	20 93 22 02 	sts	0x0222, r18
    2984:	8f ef       	ldi	r24, 0xFF	; 255
    2986:	80 93 84 02 	sts	0x0284, r24
    298a:	8f ef       	ldi	r24, 0xFF	; 255
    298c:	9f ef       	ldi	r25, 0xFF	; 255
    298e:	90 93 61 04 	sts	0x0461, r25
    2992:	80 93 60 04 	sts	0x0460, r24
    2996:	90 93 63 04 	sts	0x0463, r25
    299a:	80 93 62 04 	sts	0x0462, r24
    299e:	90 93 65 04 	sts	0x0465, r25
    29a2:	80 93 64 04 	sts	0x0464, r24
    29a6:	90 93 67 04 	sts	0x0467, r25
    29aa:	80 93 66 04 	sts	0x0466, r24
    29ae:	90 93 69 04 	sts	0x0469, r25
    29b2:	80 93 68 04 	sts	0x0468, r24
    29b6:	e3 e9       	ldi	r30, 0x93	; 147
    29b8:	f2 e0       	ldi	r31, 0x02	; 2
    29ba:	c8 e9       	ldi	r28, 0x98	; 152
    29bc:	d2 e0       	ldi	r29, 0x02	; 2
    29be:	41 e0       	ldi	r20, 0x01	; 1
    29c0:	5c e3       	ldi	r21, 0x3C	; 60
    29c2:	c5 2e       	mov	r12, r21
    29c4:	d1 2c       	mov	r13, r1
    29c6:	e1 2c       	mov	r14, r1
    29c8:	f1 2c       	mov	r15, r1
    29ca:	9f 01       	movw	r18, r30
    29cc:	23 50       	subi	r18, 0x03	; 3
    29ce:	31 09       	sbc	r19, r1
    29d0:	d9 01       	movw	r26, r18
    29d2:	1c 92       	st	X, r1
    29d4:	2f 5f       	subi	r18, 0xFF	; 255
    29d6:	3f 4f       	sbci	r19, 0xFF	; 255
    29d8:	d9 01       	movw	r26, r18
    29da:	1c 92       	st	X, r1
    29dc:	2f 5f       	subi	r18, 0xFF	; 255
    29de:	3f 4f       	sbci	r19, 0xFF	; 255
    29e0:	d9 01       	movw	r26, r18
    29e2:	4c 93       	st	X, r20
    29e4:	40 83       	st	Z, r20
    29e6:	c1 82       	std	Z+1, r12	; 0x01
    29e8:	d2 82       	std	Z+2, r13	; 0x02
    29ea:	e3 82       	std	Z+3, r14	; 0x03
    29ec:	f4 82       	std	Z+4, r15	; 0x04
    29ee:	18 82       	st	Y, r1
    29f0:	39 96       	adiw	r30, 0x09	; 9
    29f2:	29 96       	adiw	r28, 0x09	; 9
    29f4:	b2 e0       	ldi	r27, 0x02	; 2
    29f6:	ed 3e       	cpi	r30, 0xED	; 237
    29f8:	fb 07       	cpc	r31, r27
    29fa:	39 f7       	brne	.-50     	; 0x29ca <main+0x220>
    29fc:	0e 94 c7 00 	call	0x18e	; 0x18e <SchedulerBasicP__popTask>
    2a00:	8f 3f       	cpi	r24, 0xFF	; 255
    2a02:	19 f0       	breq	.+6      	; 0x2a0a <main+0x260>
    2a04:	0e 94 d1 0c 	call	0x19a2	; 0x19a2 <SchedulerBasicP__TaskBasic__runTask>
    2a08:	f9 cf       	rjmp	.-14     	; 0x29fc <main+0x252>
    2a0a:	1f bf       	out	0x3f, r17	; 63
    2a0c:	78 94       	sei
    2a0e:	0e 94 a2 0c 	call	0x1944	; 0x1944 <MessageBufferLayerP__0__SplitControl__start>
    2a12:	cf b7       	in	r28, 0x3f	; 63
    2a14:	f8 94       	cli
    2a16:	0e 94 c7 00 	call	0x18e	; 0x18e <SchedulerBasicP__popTask>
    2a1a:	8f 3f       	cpi	r24, 0xFF	; 255
    2a1c:	09 f0       	breq	.+2      	; 0x2a20 <main+0x276>
    2a1e:	4f c0       	rjmp	.+158    	; 0x2abe <main+0x314>
    2a20:	80 91 70 00 	lds	r24, 0x0070
    2a24:	83 70       	andi	r24, 0x03	; 3
    2a26:	99 f0       	breq	.+38     	; 0x2a4e <main+0x2a4>
    2a28:	80 91 b6 00 	lds	r24, 0x00B6
    2a2c:	8a 71       	andi	r24, 0x1A	; 26
    2a2e:	e1 f7       	brne	.-8      	; 0x2a28 <main+0x27e>
    2a30:	80 91 b3 00 	lds	r24, 0x00B3
    2a34:	90 91 b2 00 	lds	r25, 0x00B2
    2a38:	89 1b       	sub	r24, r25
    2a3a:	8c 30       	cpi	r24, 0x0C	; 12
    2a3c:	10 f4       	brcc	.+4      	; 0x2a42 <main+0x298>
    2a3e:	92 e0       	ldi	r25, 0x02	; 2
    2a40:	07 c0       	rjmp	.+14     	; 0x2a50 <main+0x2a6>
    2a42:	80 91 b2 00 	lds	r24, 0x00B2
    2a46:	85 3f       	cpi	r24, 0xF5	; 245
    2a48:	d0 f7       	brcc	.-12     	; 0x2a3e <main+0x294>
    2a4a:	93 e0       	ldi	r25, 0x03	; 3
    2a4c:	01 c0       	rjmp	.+2      	; 0x2a50 <main+0x2a6>
    2a4e:	95 e0       	ldi	r25, 0x05	; 5
    2a50:	80 91 6e 00 	lds	r24, 0x006E
    2a54:	86 70       	andi	r24, 0x06	; 6
    2a56:	e9 f4       	brne	.+58     	; 0x2a92 <main+0x2e8>
    2a58:	80 91 6f 00 	lds	r24, 0x006F
    2a5c:	8e 72       	andi	r24, 0x2E	; 46
    2a5e:	c9 f4       	brne	.+50     	; 0x2a92 <main+0x2e8>
    2a60:	80 91 71 00 	lds	r24, 0x0071
    2a64:	8e 72       	andi	r24, 0x2E	; 46
    2a66:	a9 f4       	brne	.+42     	; 0x2a92 <main+0x2e8>
    2a68:	0c b4       	in	r0, 0x2c	; 44
    2a6a:	07 fc       	sbrc	r0, 7
    2a6c:	12 c0       	rjmp	.+36     	; 0x2a92 <main+0x2e8>
    2a6e:	80 91 c1 00 	lds	r24, 0x00C1
    2a72:	88 71       	andi	r24, 0x18	; 24
    2a74:	71 f4       	brne	.+28     	; 0x2a92 <main+0x2e8>
    2a76:	80 91 c9 00 	lds	r24, 0x00C9
    2a7a:	88 71       	andi	r24, 0x18	; 24
    2a7c:	51 f4       	brne	.+20     	; 0x2a92 <main+0x2e8>
    2a7e:	80 91 bc 00 	lds	r24, 0x00BC
    2a82:	82 fd       	sbrc	r24, 2
    2a84:	06 c0       	rjmp	.+12     	; 0x2a92 <main+0x2e8>
    2a86:	80 91 7a 00 	lds	r24, 0x007A
    2a8a:	87 ff       	sbrs	r24, 7
    2a8c:	04 c0       	rjmp	.+8      	; 0x2a96 <main+0x2ec>
    2a8e:	e1 e0       	ldi	r30, 0x01	; 1
    2a90:	03 c0       	rjmp	.+6      	; 0x2a98 <main+0x2ee>
    2a92:	e0 e0       	ldi	r30, 0x00	; 0
    2a94:	01 c0       	rjmp	.+2      	; 0x2a98 <main+0x2ee>
    2a96:	e5 e0       	ldi	r30, 0x05	; 5
    2a98:	83 b7       	in	r24, 0x33	; 51
    2a9a:	9e 17       	cp	r25, r30
    2a9c:	08 f4       	brcc	.+2      	; 0x2aa0 <main+0x2f6>
    2a9e:	e9 2f       	mov	r30, r25
    2aa0:	f0 e0       	ldi	r31, 0x00	; 0
    2aa2:	e4 51       	subi	r30, 0x14	; 20
    2aa4:	ff 4f       	sbci	r31, 0xFF	; 255
    2aa6:	e4 91       	lpm	r30, Z
    2aa8:	80 7f       	andi	r24, 0xF0	; 240
    2aaa:	81 60       	ori	r24, 0x01	; 1
    2aac:	8e 2b       	or	r24, r30
    2aae:	83 bf       	out	0x33, r24	; 51
    2ab0:	78 94       	sei
    2ab2:	88 95       	sleep
    2ab4:	f8 94       	cli
    2ab6:	83 b7       	in	r24, 0x33	; 51
    2ab8:	8e 7f       	andi	r24, 0xFE	; 254
    2aba:	83 bf       	out	0x33, r24	; 51
    2abc:	ac cf       	rjmp	.-168    	; 0x2a16 <main+0x26c>
    2abe:	cf bf       	out	0x3f, r28	; 63
    2ac0:	0e 94 d1 0c 	call	0x19a2	; 0x19a2 <SchedulerBasicP__TaskBasic__runTask>
    2ac4:	a6 cf       	rjmp	.-180    	; 0x2a12 <main+0x268>

00002ac6 <__udivmodhi4>:
    2ac6:	aa 1b       	sub	r26, r26
    2ac8:	bb 1b       	sub	r27, r27
    2aca:	51 e1       	ldi	r21, 0x11	; 17
    2acc:	07 c0       	rjmp	.+14     	; 0x2adc <__udivmodhi4_ep>

00002ace <__udivmodhi4_loop>:
    2ace:	aa 1f       	adc	r26, r26
    2ad0:	bb 1f       	adc	r27, r27
    2ad2:	a6 17       	cp	r26, r22
    2ad4:	b7 07       	cpc	r27, r23
    2ad6:	10 f0       	brcs	.+4      	; 0x2adc <__udivmodhi4_ep>
    2ad8:	a6 1b       	sub	r26, r22
    2ada:	b7 0b       	sbc	r27, r23

00002adc <__udivmodhi4_ep>:
    2adc:	88 1f       	adc	r24, r24
    2ade:	99 1f       	adc	r25, r25
    2ae0:	5a 95       	dec	r21
    2ae2:	a9 f7       	brne	.-22     	; 0x2ace <__udivmodhi4_loop>
    2ae4:	80 95       	com	r24
    2ae6:	90 95       	com	r25
    2ae8:	bc 01       	movw	r22, r24
    2aea:	cd 01       	movw	r24, r26
    2aec:	08 95       	ret

00002aee <__tablejump2__>:
    2aee:	ee 0f       	add	r30, r30
    2af0:	ff 1f       	adc	r31, r31

00002af2 <__tablejump__>:
    2af2:	05 90       	lpm	r0, Z+
    2af4:	f4 91       	lpm	r31, Z
    2af6:	e0 2d       	mov	r30, r0
    2af8:	09 94       	ijmp

00002afa <__ashldi3>:
    2afa:	0f 93       	push	r16
    2afc:	08 30       	cpi	r16, 0x08	; 8
    2afe:	90 f0       	brcs	.+36     	; 0x2b24 <__ashldi3+0x2a>
    2b00:	98 2f       	mov	r25, r24
    2b02:	87 2f       	mov	r24, r23
    2b04:	76 2f       	mov	r23, r22
    2b06:	65 2f       	mov	r22, r21
    2b08:	54 2f       	mov	r21, r20
    2b0a:	43 2f       	mov	r20, r19
    2b0c:	32 2f       	mov	r19, r18
    2b0e:	22 27       	eor	r18, r18
    2b10:	08 50       	subi	r16, 0x08	; 8
    2b12:	f4 cf       	rjmp	.-24     	; 0x2afc <__ashldi3+0x2>
    2b14:	22 0f       	add	r18, r18
    2b16:	33 1f       	adc	r19, r19
    2b18:	44 1f       	adc	r20, r20
    2b1a:	55 1f       	adc	r21, r21
    2b1c:	66 1f       	adc	r22, r22
    2b1e:	77 1f       	adc	r23, r23
    2b20:	88 1f       	adc	r24, r24
    2b22:	99 1f       	adc	r25, r25
    2b24:	0a 95       	dec	r16
    2b26:	b2 f7       	brpl	.-20     	; 0x2b14 <__ashldi3+0x1a>
    2b28:	0f 91       	pop	r16
    2b2a:	08 95       	ret

00002b2c <__ashrdi3>:
    2b2c:	97 fb       	bst	r25, 7
    2b2e:	10 f8       	bld	r1, 0

00002b30 <__lshrdi3>:
    2b30:	16 94       	lsr	r1
    2b32:	00 08       	sbc	r0, r0
    2b34:	0f 93       	push	r16
    2b36:	08 30       	cpi	r16, 0x08	; 8
    2b38:	98 f0       	brcs	.+38     	; 0x2b60 <__lshrdi3+0x30>
    2b3a:	08 50       	subi	r16, 0x08	; 8
    2b3c:	23 2f       	mov	r18, r19
    2b3e:	34 2f       	mov	r19, r20
    2b40:	45 2f       	mov	r20, r21
    2b42:	56 2f       	mov	r21, r22
    2b44:	67 2f       	mov	r22, r23
    2b46:	78 2f       	mov	r23, r24
    2b48:	89 2f       	mov	r24, r25
    2b4a:	90 2d       	mov	r25, r0
    2b4c:	f4 cf       	rjmp	.-24     	; 0x2b36 <__lshrdi3+0x6>
    2b4e:	05 94       	asr	r0
    2b50:	97 95       	ror	r25
    2b52:	87 95       	ror	r24
    2b54:	77 95       	ror	r23
    2b56:	67 95       	ror	r22
    2b58:	57 95       	ror	r21
    2b5a:	47 95       	ror	r20
    2b5c:	37 95       	ror	r19
    2b5e:	27 95       	ror	r18
    2b60:	0a 95       	dec	r16
    2b62:	aa f7       	brpl	.-22     	; 0x2b4e <__lshrdi3+0x1e>
    2b64:	0f 91       	pop	r16
    2b66:	08 95       	ret

00002b68 <__subdi3>:
    2b68:	2a 19       	sub	r18, r10
    2b6a:	3b 09       	sbc	r19, r11
    2b6c:	4c 09       	sbc	r20, r12
    2b6e:	5d 09       	sbc	r21, r13
    2b70:	6e 09       	sbc	r22, r14
    2b72:	7f 09       	sbc	r23, r15
    2b74:	80 0b       	sbc	r24, r16
    2b76:	91 0b       	sbc	r25, r17
    2b78:	08 95       	ret

00002b7a <memset>:
    2b7a:	dc 01       	movw	r26, r24
    2b7c:	01 c0       	rjmp	.+2      	; 0x2b80 <memset+0x6>
    2b7e:	6d 93       	st	X+, r22
    2b80:	41 50       	subi	r20, 0x01	; 1
    2b82:	50 40       	sbci	r21, 0x00	; 0
    2b84:	e0 f7       	brcc	.-8      	; 0x2b7e <memset+0x4>
    2b86:	08 95       	ret

00002b88 <_exit>:
    2b88:	f8 94       	cli

00002b8a <__stop_program>:
    2b8a:	ff cf       	rjmp	.-2      	; 0x2b8a <__stop_program>
